
SmartBase.elf:     file format elf32-avr

Sections:
Idx Name          Size      VMA       LMA       File off  Algn
  0 .data         0000001e  00800100  00002f90  00003024  2**0
                  CONTENTS, ALLOC, LOAD, DATA
  1 .text         00002f90  00000000  00000000  00000094  2**1
                  CONTENTS, ALLOC, LOAD, READONLY, CODE
  2 .bss          000001e2  0080011e  0080011e  00003042  2**0
                  ALLOC
  3 .stab         000081f0  00000000  00000000  00003044  2**2
                  CONTENTS, READONLY, DEBUGGING
  4 .stabstr      00008594  00000000  00000000  0000b234  2**0
                  CONTENTS, READONLY, DEBUGGING
  5 .debug_aranges 00000020  00000000  00000000  000137c8  2**0
                  CONTENTS, READONLY, DEBUGGING
  6 .debug_pubnames 000000cd  00000000  00000000  000137e8  2**0
                  CONTENTS, READONLY, DEBUGGING
  7 .debug_info   000004ce  00000000  00000000  000138b5  2**0
                  CONTENTS, READONLY, DEBUGGING
  8 .debug_abbrev 000001fd  00000000  00000000  00013d83  2**0
                  CONTENTS, READONLY, DEBUGGING
  9 .debug_line   00000493  00000000  00000000  00013f80  2**0
                  CONTENTS, READONLY, DEBUGGING
 10 .debug_frame  00000070  00000000  00000000  00014414  2**2
                  CONTENTS, READONLY, DEBUGGING
 11 .debug_str    000001ee  00000000  00000000  00014484  2**0
                  CONTENTS, READONLY, DEBUGGING
 12 .debug_loc    000001b3  00000000  00000000  00014672  2**0
                  CONTENTS, READONLY, DEBUGGING

Disassembly of section .text:

00000000 <__vectors>:
       0:	0c 94 36 00 	jmp	0x6c	; 0x6c <__dtors_end>
       4:	0c 94 5e 00 	jmp	0xbc	; 0xbc <__bad_interrupt>
       8:	0c 94 5e 00 	jmp	0xbc	; 0xbc <__bad_interrupt>
       c:	0c 94 5e 00 	jmp	0xbc	; 0xbc <__bad_interrupt>
      10:	0c 94 5e 00 	jmp	0xbc	; 0xbc <__bad_interrupt>
      14:	0c 94 5e 00 	jmp	0xbc	; 0xbc <__bad_interrupt>
      18:	0c 94 5e 00 	jmp	0xbc	; 0xbc <__bad_interrupt>
      1c:	0c 94 5e 00 	jmp	0xbc	; 0xbc <__bad_interrupt>
      20:	0c 94 5e 00 	jmp	0xbc	; 0xbc <__bad_interrupt>
      24:	0c 94 d6 0c 	jmp	0x19ac	; 0x19ac <__vector_9>
      28:	0c 94 5e 00 	jmp	0xbc	; 0xbc <__bad_interrupt>
      2c:	0c 94 5e 00 	jmp	0xbc	; 0xbc <__bad_interrupt>
      30:	0c 94 5e 00 	jmp	0xbc	; 0xbc <__bad_interrupt>
      34:	0c 94 5e 00 	jmp	0xbc	; 0xbc <__bad_interrupt>
      38:	0c 94 5e 00 	jmp	0xbc	; 0xbc <__bad_interrupt>
      3c:	0c 94 5e 00 	jmp	0xbc	; 0xbc <__bad_interrupt>
      40:	0c 94 5e 00 	jmp	0xbc	; 0xbc <__bad_interrupt>
      44:	0c 94 5e 00 	jmp	0xbc	; 0xbc <__bad_interrupt>
      48:	0c 94 13 0c 	jmp	0x1826	; 0x1826 <__vector_18>
      4c:	0c 94 4b 0c 	jmp	0x1896	; 0x1896 <__vector_19>
      50:	0c 94 5e 00 	jmp	0xbc	; 0xbc <__bad_interrupt>
      54:	0c 94 5e 00 	jmp	0xbc	; 0xbc <__bad_interrupt>
      58:	0c 94 5e 00 	jmp	0xbc	; 0xbc <__bad_interrupt>
      5c:	0c 94 5e 00 	jmp	0xbc	; 0xbc <__bad_interrupt>
      60:	0c 94 5e 00 	jmp	0xbc	; 0xbc <__bad_interrupt>
      64:	0c 94 5e 00 	jmp	0xbc	; 0xbc <__bad_interrupt>

00000068 <__ctors_start>:
      68:	04 0e       	add	r0, r20

0000006a <__ctors_end>:
      6a:	05 0e       	add	r0, r21

0000006c <__dtors_end>:
      6c:	11 24       	eor	r1, r1
      6e:	1f be       	out	0x3f, r1	; 63
      70:	cf ef       	ldi	r28, 0xFF	; 255
      72:	d8 e0       	ldi	r29, 0x08	; 8
      74:	de bf       	out	0x3e, r29	; 62
      76:	cd bf       	out	0x3d, r28	; 61

00000078 <__do_copy_data>:
      78:	11 e0       	ldi	r17, 0x01	; 1
      7a:	a0 e0       	ldi	r26, 0x00	; 0
      7c:	b1 e0       	ldi	r27, 0x01	; 1
      7e:	e0 e9       	ldi	r30, 0x90	; 144
      80:	ff e2       	ldi	r31, 0x2F	; 47
      82:	02 c0       	rjmp	.+4      	; 0x88 <.do_copy_data_start>

00000084 <.do_copy_data_loop>:
      84:	05 90       	lpm	r0, Z+
      86:	0d 92       	st	X+, r0

00000088 <.do_copy_data_start>:
      88:	ae 31       	cpi	r26, 0x1E	; 30
      8a:	b1 07       	cpc	r27, r17
      8c:	d9 f7       	brne	.-10     	; 0x84 <.do_copy_data_loop>

0000008e <__do_clear_bss>:
      8e:	13 e0       	ldi	r17, 0x03	; 3
      90:	ae e1       	ldi	r26, 0x1E	; 30
      92:	b1 e0       	ldi	r27, 0x01	; 1
      94:	01 c0       	rjmp	.+2      	; 0x98 <.do_clear_bss_start>

00000096 <.do_clear_bss_loop>:
      96:	1d 92       	st	X+, r1

00000098 <.do_clear_bss_start>:
      98:	a0 30       	cpi	r26, 0x00	; 0
      9a:	b1 07       	cpc	r27, r17
      9c:	e1 f7       	brne	.-8      	; 0x96 <.do_clear_bss_loop>

0000009e <__do_global_ctors>:
      9e:	10 e0       	ldi	r17, 0x00	; 0
      a0:	ca e6       	ldi	r28, 0x6A	; 106
      a2:	d0 e0       	ldi	r29, 0x00	; 0
      a4:	04 c0       	rjmp	.+8      	; 0xae <.do_global_ctors_start>

000000a6 <.do_global_ctors_loop>:
      a6:	22 97       	sbiw	r28, 0x02	; 2
      a8:	fe 01       	movw	r30, r28
      aa:	0e 94 43 16 	call	0x2c86	; 0x2c86 <__tablejump__>

000000ae <.do_global_ctors_start>:
      ae:	c8 36       	cpi	r28, 0x68	; 104
      b0:	d1 07       	cpc	r29, r17
      b2:	c9 f7       	brne	.-14     	; 0xa6 <.do_global_ctors_loop>
      b4:	0e 94 3e 02 	call	0x47c	; 0x47c <main>
      b8:	0c 94 bb 17 	jmp	0x2f76	; 0x2f76 <__do_global_dtors>

000000bc <__bad_interrupt>:
      bc:	0c 94 00 00 	jmp	0	; 0x0 <__vectors>

000000c0 <turn>:
	pololu_3pi_init(2000);
}

void turn(char dir)
{
	switch(dir)
      c0:	8c 34       	cpi	r24, 0x4C	; 76
      c2:	31 f0       	breq	.+12     	; 0xd0 <turn+0x10>
      c4:	82 35       	cpi	r24, 0x52	; 82
      c6:	49 f1       	breq	.+82     	; 0x11a <turn+0x5a>
      c8:	82 34       	cpi	r24, 0x42	; 66
      ca:	09 f0       	breq	.+2      	; 0xce <turn+0xe>
      cc:	6f c0       	rjmp	.+222    	; 0x1ac <turn+0xec>
      ce:	4a c0       	rjmp	.+148    	; 0x164 <turn+0xa4>
	{
		case 'L':  // Turn left
            set_motors(-80,80);
      d0:	80 eb       	ldi	r24, 0xB0	; 176
      d2:	9f ef       	ldi	r25, 0xFF	; 255
      d4:	60 e5       	ldi	r22, 0x50	; 80
      d6:	70 e0       	ldi	r23, 0x00	; 0
      d8:	0e 94 2b 0a 	call	0x1456	; 0x1456 <set_motors>
            delay_ms(100);
      dc:	84 e6       	ldi	r24, 0x64	; 100
      de:	90 e0       	ldi	r25, 0x00	; 0
      e0:	0e 94 21 0d 	call	0x1a42	; 0x1a42 <delay_ms>
			while(1)
			{
				read_line(sensors,IR_EMITTERS_ON);
      e4:	8c ee       	ldi	r24, 0xEC	; 236
      e6:	92 e0       	ldi	r25, 0x02	; 2
      e8:	61 e0       	ldi	r22, 0x01	; 1
      ea:	0e 94 18 0e 	call	0x1c30	; 0x1c30 <read_line>
				if(sensors[1] > 100 && sensors[2] > 200 && sensors[3] > 100)
      ee:	80 91 ee 02 	lds	r24, 0x02EE
      f2:	90 91 ef 02 	lds	r25, 0x02EF
      f6:	85 36       	cpi	r24, 0x65	; 101
      f8:	91 05       	cpc	r25, r1
      fa:	a0 f3       	brcs	.-24     	; 0xe4 <turn+0x24>
      fc:	80 91 f0 02 	lds	r24, 0x02F0
     100:	90 91 f1 02 	lds	r25, 0x02F1
     104:	89 3c       	cpi	r24, 0xC9	; 201
     106:	91 05       	cpc	r25, r1
     108:	68 f3       	brcs	.-38     	; 0xe4 <turn+0x24>
     10a:	80 91 f2 02 	lds	r24, 0x02F2
     10e:	90 91 f3 02 	lds	r25, 0x02F3
     112:	85 36       	cpi	r24, 0x65	; 101
     114:	91 05       	cpc	r25, r1
     116:	30 f3       	brcs	.-52     	; 0xe4 <turn+0x24>
     118:	49 c0       	rjmp	.+146    	; 0x1ac <turn+0xec>
					break;
			}
		break;
		case 'R':  // Turn right
            set_motors(80,-80);
     11a:	80 e5       	ldi	r24, 0x50	; 80
     11c:	90 e0       	ldi	r25, 0x00	; 0
     11e:	60 eb       	ldi	r22, 0xB0	; 176
     120:	7f ef       	ldi	r23, 0xFF	; 255
     122:	0e 94 2b 0a 	call	0x1456	; 0x1456 <set_motors>
            delay_ms(100);
     126:	84 e6       	ldi	r24, 0x64	; 100
     128:	90 e0       	ldi	r25, 0x00	; 0
     12a:	0e 94 21 0d 	call	0x1a42	; 0x1a42 <delay_ms>
			while(1)
			{
				read_line(sensors,IR_EMITTERS_ON); 
     12e:	8c ee       	ldi	r24, 0xEC	; 236
     130:	92 e0       	ldi	r25, 0x02	; 2
     132:	61 e0       	ldi	r22, 0x01	; 1
     134:	0e 94 18 0e 	call	0x1c30	; 0x1c30 <read_line>
				if(sensors[1] > 100 && sensors[2] > 200 && sensors[3] > 100)
     138:	80 91 ee 02 	lds	r24, 0x02EE
     13c:	90 91 ef 02 	lds	r25, 0x02EF
     140:	85 36       	cpi	r24, 0x65	; 101
     142:	91 05       	cpc	r25, r1
     144:	a0 f3       	brcs	.-24     	; 0x12e <turn+0x6e>
     146:	80 91 f0 02 	lds	r24, 0x02F0
     14a:	90 91 f1 02 	lds	r25, 0x02F1
     14e:	89 3c       	cpi	r24, 0xC9	; 201
     150:	91 05       	cpc	r25, r1
     152:	68 f3       	brcs	.-38     	; 0x12e <turn+0x6e>
     154:	80 91 f2 02 	lds	r24, 0x02F2
     158:	90 91 f3 02 	lds	r25, 0x02F3
     15c:	85 36       	cpi	r24, 0x65	; 101
     15e:	91 05       	cpc	r25, r1
     160:	30 f3       	brcs	.-52     	; 0x12e <turn+0x6e>
     162:	24 c0       	rjmp	.+72     	; 0x1ac <turn+0xec>
					break;
			}
		break;
		case 'B':  // Turn around
            set_motors(80,-80);
     164:	80 e5       	ldi	r24, 0x50	; 80
     166:	90 e0       	ldi	r25, 0x00	; 0
     168:	60 eb       	ldi	r22, 0xB0	; 176
     16a:	7f ef       	ldi	r23, 0xFF	; 255
     16c:	0e 94 2b 0a 	call	0x1456	; 0x1456 <set_motors>
            delay_ms(300);
     170:	8c e2       	ldi	r24, 0x2C	; 44
     172:	91 e0       	ldi	r25, 0x01	; 1
     174:	0e 94 21 0d 	call	0x1a42	; 0x1a42 <delay_ms>
			while(1)
			{
				read_line(sensors,IR_EMITTERS_ON); 
     178:	8c ee       	ldi	r24, 0xEC	; 236
     17a:	92 e0       	ldi	r25, 0x02	; 2
     17c:	61 e0       	ldi	r22, 0x01	; 1
     17e:	0e 94 18 0e 	call	0x1c30	; 0x1c30 <read_line>
				if(sensors[1] > 100 && sensors[2] > 200 && sensors[3] > 100)
     182:	80 91 ee 02 	lds	r24, 0x02EE
     186:	90 91 ef 02 	lds	r25, 0x02EF
     18a:	85 36       	cpi	r24, 0x65	; 101
     18c:	91 05       	cpc	r25, r1
     18e:	a0 f3       	brcs	.-24     	; 0x178 <turn+0xb8>
     190:	80 91 f0 02 	lds	r24, 0x02F0
     194:	90 91 f1 02 	lds	r25, 0x02F1
     198:	89 3c       	cpi	r24, 0xC9	; 201
     19a:	91 05       	cpc	r25, r1
     19c:	68 f3       	brcs	.-38     	; 0x178 <turn+0xb8>
     19e:	80 91 f2 02 	lds	r24, 0x02F2
     1a2:	90 91 f3 02 	lds	r25, 0x02F3
     1a6:	85 36       	cpi	r24, 0x65	; 101
     1a8:	91 05       	cpc	r25, r1
     1aa:	30 f3       	brcs	.-52     	; 0x178 <turn+0xb8>
		break;
		case 'S':
            // Don't do anything!
		break;
	}
	set_motors(0,0);
     1ac:	80 e0       	ldi	r24, 0x00	; 0
     1ae:	90 e0       	ldi	r25, 0x00	; 0
     1b0:	60 e0       	ldi	r22, 0x00	; 0
     1b2:	70 e0       	ldi	r23, 0x00	; 0
     1b4:	0e 94 2b 0a 	call	0x1456	; 0x1456 <set_motors>
}
     1b8:	08 95       	ret

000001ba <follow_segment>:
volatile int error = 0;
char ack[1] = {0x06};
char nak[1] = {0x15};

void follow_segment()
{
     1ba:	2f 92       	push	r2
     1bc:	3f 92       	push	r3
     1be:	4f 92       	push	r4
     1c0:	5f 92       	push	r5
     1c2:	6f 92       	push	r6
     1c4:	7f 92       	push	r7
     1c6:	8f 92       	push	r8
     1c8:	9f 92       	push	r9
     1ca:	af 92       	push	r10
     1cc:	bf 92       	push	r11
     1ce:	cf 92       	push	r12
     1d0:	df 92       	push	r13
     1d2:	ef 92       	push	r14
     1d4:	ff 92       	push	r15
     1d6:	0f 93       	push	r16
     1d8:	1f 93       	push	r17
     1da:	df 93       	push	r29
     1dc:	cf 93       	push	r28
     1de:	cd b7       	in	r28, 0x3d	; 61
     1e0:	de b7       	in	r29, 0x3e	; 62
     1e2:	2a 97       	sbiw	r28, 0x0a	; 10
     1e4:	0f b6       	in	r0, 0x3f	; 63
     1e6:	f8 94       	cli
     1e8:	de bf       	out	0x3e, r29	; 62
     1ea:	0f be       	out	0x3f, r0	; 63
     1ec:	cd bf       	out	0x3d, r28	; 61
     1ee:	66 24       	eor	r6, r6
     1f0:	77 24       	eor	r7, r7
     1f2:	aa 24       	eor	r10, r10
     1f4:	bb 24       	eor	r11, r11
     1f6:	65 01       	movw	r12, r10
		// similar to the 3pi-linefollower-pid example, but the maximum
		// speed is turned down to 60 for reliability.

		// Get the position of the line.
		unsigned int sensors[5];
		unsigned int position = read_line(sensors,IR_EMITTERS_ON);
     1f8:	1e 01       	movw	r2, r28
     1fa:	08 94       	sec
     1fc:	21 1c       	adc	r2, r1
     1fe:	31 1c       	adc	r3, r1
			power_difference = -max;
		
		if(power_difference < 0)
			set_motors(max+power_difference,max);
		else
			set_motors(max,max-power_difference);
     200:	6c e3       	ldi	r22, 0x3C	; 60
     202:	46 2e       	mov	r4, r22
     204:	51 2c       	mov	r5, r1
		// similar to the 3pi-linefollower-pid example, but the maximum
		// speed is turned down to 60 for reliability.

		// Get the position of the line.
		unsigned int sensors[5];
		unsigned int position = read_line(sensors,IR_EMITTERS_ON);
     206:	c1 01       	movw	r24, r2
     208:	61 e0       	ldi	r22, 0x01	; 1
     20a:	0e 94 18 0e 	call	0x1c30	; 0x1c30 <read_line>

		// The "proportional" term should be 0 when we are on the line.
		int proportional = ((int)position) - 2000;
     20e:	50 e3       	ldi	r21, 0x30	; 48
     210:	85 2e       	mov	r8, r21
     212:	58 ef       	ldi	r21, 0xF8	; 248
     214:	95 2e       	mov	r9, r21
     216:	88 0e       	add	r8, r24
     218:	99 1e       	adc	r9, r25

		// Compute the derivative (change) and integral (sum) of the
		// position.
		int derivative = proportional - last_proportional;
		integral += proportional;
     21a:	c4 01       	movw	r24, r8
     21c:	aa 27       	eor	r26, r26
     21e:	97 fd       	sbrc	r25, 7
     220:	a0 95       	com	r26
     222:	ba 2f       	mov	r27, r26
     224:	a8 0e       	add	r10, r24
     226:	b9 1e       	adc	r11, r25
     228:	ca 1e       	adc	r12, r26
     22a:	db 1e       	adc	r13, r27
		// Compute the difference between the two motor power settings,
		// m1 - m2.  If this is a positive number the robot will turn
		// to the left.  If it is a negative number, the robot will
		// turn to the right, and the magnitude of the number determines
		// the sharpness of the turn.
		int power_difference = proportional/20 + integral/10000 + derivative*3/2;
     22c:	c6 01       	movw	r24, r12
     22e:	b5 01       	movw	r22, r10
     230:	20 e1       	ldi	r18, 0x10	; 16
     232:	37 e2       	ldi	r19, 0x27	; 39
     234:	40 e0       	ldi	r20, 0x00	; 0
     236:	50 e0       	ldi	r21, 0x00	; 0
     238:	0e 94 ef 15 	call	0x2bde	; 0x2bde <__divmodsi4>
     23c:	79 01       	movw	r14, r18
     23e:	8a 01       	movw	r16, r20
     240:	94 01       	movw	r18, r8
     242:	26 19       	sub	r18, r6
     244:	37 09       	sbc	r19, r7
     246:	c9 01       	movw	r24, r18
     248:	88 0f       	add	r24, r24
     24a:	99 1f       	adc	r25, r25
     24c:	82 0f       	add	r24, r18
     24e:	93 1f       	adc	r25, r19
     250:	62 e0       	ldi	r22, 0x02	; 2
     252:	70 e0       	ldi	r23, 0x00	; 0
     254:	0e 94 ba 15 	call	0x2b74	; 0x2b74 <__divmodhi4>
     258:	9b 01       	movw	r18, r22
     25a:	2e 0d       	add	r18, r14
     25c:	3f 1d       	adc	r19, r15
     25e:	c4 01       	movw	r24, r8
     260:	64 e1       	ldi	r22, 0x14	; 20
     262:	70 e0       	ldi	r23, 0x00	; 0
     264:	0e 94 ba 15 	call	0x2b74	; 0x2b74 <__divmodhi4>
     268:	26 0f       	add	r18, r22
     26a:	37 1f       	adc	r19, r23

		// Compute the actual motor settings.  We never set either motor
		// to a negative value.
		
		if(power_difference > max)
     26c:	2d 33       	cpi	r18, 0x3D	; 61
     26e:	31 05       	cpc	r19, r1
     270:	74 f4       	brge	.+28     	; 0x28e <follow_segment+0xd4>
			power_difference = max;
		if(power_difference < -max)
     272:	8f ef       	ldi	r24, 0xFF	; 255
     274:	24 3c       	cpi	r18, 0xC4	; 196
     276:	38 07       	cpc	r19, r24
     278:	1c f4       	brge	.+6      	; 0x280 <follow_segment+0xc6>
     27a:	24 ec       	ldi	r18, 0xC4	; 196
     27c:	3f ef       	ldi	r19, 0xFF	; 255
     27e:	02 c0       	rjmp	.+4      	; 0x284 <follow_segment+0xca>
			power_difference = -max;
		
		if(power_difference < 0)
     280:	37 ff       	sbrs	r19, 7
     282:	07 c0       	rjmp	.+14     	; 0x292 <follow_segment+0xd8>
			set_motors(max+power_difference,max);
     284:	c9 01       	movw	r24, r18
     286:	cc 96       	adiw	r24, 0x3c	; 60
     288:	6c e3       	ldi	r22, 0x3C	; 60
     28a:	70 e0       	ldi	r23, 0x00	; 0
     28c:	07 c0       	rjmp	.+14     	; 0x29c <follow_segment+0xe2>
     28e:	2c e3       	ldi	r18, 0x3C	; 60
     290:	30 e0       	ldi	r19, 0x00	; 0
		else
			set_motors(max,max-power_difference);
     292:	b2 01       	movw	r22, r4
     294:	62 1b       	sub	r22, r18
     296:	73 0b       	sbc	r23, r19
     298:	8c e3       	ldi	r24, 0x3C	; 60
     29a:	90 e0       	ldi	r25, 0x00	; 0
     29c:	0e 94 2b 0a 	call	0x1456	; 0x1456 <set_motors>
		// We use the inner three sensors (1, 2, and 3) for
		// determining whether there is a line straight ahead, and the
		// sensors 0 and 4 for detecting lines going to the left and
		// right.

		if(sensors[1] < 100 && sensors[2] < 100 && sensors[3] < 100)
     2a0:	8b 81       	ldd	r24, Y+3	; 0x03
     2a2:	9c 81       	ldd	r25, Y+4	; 0x04
     2a4:	84 36       	cpi	r24, 0x64	; 100
     2a6:	91 05       	cpc	r25, r1
     2a8:	50 f4       	brcc	.+20     	; 0x2be <follow_segment+0x104>
     2aa:	8d 81       	ldd	r24, Y+5	; 0x05
     2ac:	9e 81       	ldd	r25, Y+6	; 0x06
     2ae:	84 36       	cpi	r24, 0x64	; 100
     2b0:	91 05       	cpc	r25, r1
     2b2:	28 f4       	brcc	.+10     	; 0x2be <follow_segment+0x104>
     2b4:	8f 81       	ldd	r24, Y+7	; 0x07
     2b6:	98 85       	ldd	r25, Y+8	; 0x08
     2b8:	84 36       	cpi	r24, 0x64	; 100
     2ba:	91 05       	cpc	r25, r1
     2bc:	60 f0       	brcs	.+24     	; 0x2d6 <follow_segment+0x11c>
			set_motors(50,50);
			delay_ms(220);
			set_motors(0,0);
			return;
		}
		else if(sensors[0] > 200 || sensors[4] > 200)
     2be:	89 81       	ldd	r24, Y+1	; 0x01
     2c0:	9a 81       	ldd	r25, Y+2	; 0x02
     2c2:	89 3c       	cpi	r24, 0xC9	; 201
     2c4:	91 05       	cpc	r25, r1
     2c6:	38 f4       	brcc	.+14     	; 0x2d6 <follow_segment+0x11c>
     2c8:	34 01       	movw	r6, r8
     2ca:	89 85       	ldd	r24, Y+9	; 0x09
     2cc:	9a 85       	ldd	r25, Y+10	; 0x0a
     2ce:	89 3c       	cpi	r24, 0xC9	; 201
     2d0:	91 05       	cpc	r25, r1
     2d2:	08 f4       	brcc	.+2      	; 0x2d6 <follow_segment+0x11c>
     2d4:	98 cf       	rjmp	.-208    	; 0x206 <follow_segment+0x4c>
		{
			// Found an intersection.
			set_motors(50,50);
     2d6:	82 e3       	ldi	r24, 0x32	; 50
     2d8:	90 e0       	ldi	r25, 0x00	; 0
     2da:	62 e3       	ldi	r22, 0x32	; 50
     2dc:	70 e0       	ldi	r23, 0x00	; 0
     2de:	0e 94 2b 0a 	call	0x1456	; 0x1456 <set_motors>
			delay_ms(220);
     2e2:	8c ed       	ldi	r24, 0xDC	; 220
     2e4:	90 e0       	ldi	r25, 0x00	; 0
     2e6:	0e 94 21 0d 	call	0x1a42	; 0x1a42 <delay_ms>
			set_motors(0,0);
     2ea:	80 e0       	ldi	r24, 0x00	; 0
     2ec:	90 e0       	ldi	r25, 0x00	; 0
     2ee:	60 e0       	ldi	r22, 0x00	; 0
     2f0:	70 e0       	ldi	r23, 0x00	; 0
     2f2:	0e 94 2b 0a 	call	0x1456	; 0x1456 <set_motors>
			return;
        }
	}
}
     2f6:	2a 96       	adiw	r28, 0x0a	; 10
     2f8:	0f b6       	in	r0, 0x3f	; 63
     2fa:	f8 94       	cli
     2fc:	de bf       	out	0x3e, r29	; 62
     2fe:	0f be       	out	0x3f, r0	; 63
     300:	cd bf       	out	0x3d, r28	; 61
     302:	cf 91       	pop	r28
     304:	df 91       	pop	r29
     306:	1f 91       	pop	r17
     308:	0f 91       	pop	r16
     30a:	ff 90       	pop	r15
     30c:	ef 90       	pop	r14
     30e:	df 90       	pop	r13
     310:	cf 90       	pop	r12
     312:	bf 90       	pop	r11
     314:	af 90       	pop	r10
     316:	9f 90       	pop	r9
     318:	8f 90       	pop	r8
     31a:	7f 90       	pop	r7
     31c:	6f 90       	pop	r6
     31e:	5f 90       	pop	r5
     320:	4f 90       	pop	r4
     322:	3f 90       	pop	r3
     324:	2f 90       	pop	r2
     326:	08 95       	ret

00000328 <initialize>:
}

void initialize()
{
	// Clear The Screen and print the battery voltage
    clear();
     328:	0e 94 fd 06 	call	0xdfa	; 0xdfa <clear>
    print("Battery");
     32c:	80 e0       	ldi	r24, 0x00	; 0
     32e:	91 e0       	ldi	r25, 0x01	; 1
     330:	0e 94 e9 07 	call	0xfd2	; 0xfd2 <print>
    lcd_goto_xy(0,1);
     334:	80 e0       	ldi	r24, 0x00	; 0
     336:	61 e0       	ldi	r22, 0x01	; 1
     338:	0e 94 cd 06 	call	0xd9a	; 0xd9a <lcd_goto_xy>
int read_temperature_c();

unsigned int read_battery_millivolts_3pi();
static inline unsigned int read_battery_millivolts()
{
  return read_battery_millivolts_3pi();
     33c:	0e 94 02 05 	call	0xa04	; 0xa04 <read_battery_millivolts_3pi>
    print_long(read_battery_millivolts());
     340:	a0 e0       	ldi	r26, 0x00	; 0
     342:	b0 e0       	ldi	r27, 0x00	; 0
     344:	bc 01       	movw	r22, r24
     346:	cd 01       	movw	r24, r26
     348:	0e 94 c8 07 	call	0xf90	; 0xf90 <print_long>
    print("mV");
     34c:	88 e0       	ldi	r24, 0x08	; 8
     34e:	91 e0       	ldi	r25, 0x01	; 1
     350:	0e 94 e9 07 	call	0xfd2	; 0xfd2 <print>

    // Initialize Serial Baud rate
	serial_set_baud_rate(9600);
     354:	60 e8       	ldi	r22, 0x80	; 128
     356:	75 e2       	ldi	r23, 0x25	; 37
     358:	80 e0       	ldi	r24, 0x00	; 0
     35a:	90 e0       	ldi	r25, 0x00	; 0
     35c:	0e 94 72 0b 	call	0x16e4	; 0x16e4 <serial_set_baud_rate>

	// Start receiving bytes in the ring buffer.
	serial_receive_ring(buffer, sizeof(buffer));
     360:	88 e8       	ldi	r24, 0x88	; 136
     362:	92 e0       	ldi	r25, 0x02	; 2
     364:	64 e6       	ldi	r22, 0x64	; 100
     366:	0e 94 4a 0a 	call	0x1494	; 0x1494 <serial_receive_ring>
	serial_set_mode(SERIAL_AUTOMATIC);
     36a:	80 e0       	ldi	r24, 0x00	; 0
     36c:	0e 94 43 0b 	call	0x1686	; 0x1686 <serial_set_mode>
    
	// This must be called at the beginning of 3pi code, to set up the
	// sensors.  We use a value of 2000 for the timeout, which
	// corresponds to 2000*0.4 us = 0.8 ms on our 20 MHz processor.
	pololu_3pi_init(2000);
     370:	80 ed       	ldi	r24, 0xD0	; 208
     372:	97 e0       	ldi	r25, 0x07	; 7
     374:	0e 94 93 0e 	call	0x1d26	; 0x1d26 <pololu_3pi_init>
}
     378:	08 95       	ret

0000037a <auto_calibrate>:
	}
}

void auto_calibrate()
{
	time_reset();
     37a:	0e 94 d9 0d 	call	0x1bb2	; 0x1bb2 <time_reset>
	set_motors(60, -60);
     37e:	8c e3       	ldi	r24, 0x3C	; 60
     380:	90 e0       	ldi	r25, 0x00	; 0
     382:	64 ec       	ldi	r22, 0xC4	; 196
     384:	7f ef       	ldi	r23, 0xFF	; 255
     386:	0e 94 2b 0a 	call	0x1456	; 0x1456 <set_motors>
     38a:	03 c0       	rjmp	.+6      	; 0x392 <auto_calibrate+0x18>
	while(get_ms() < 250)
        calibrate_line_sensors(IR_EMITTERS_ON);
     38c:	81 e0       	ldi	r24, 0x01	; 1
     38e:	0e 94 33 0e 	call	0x1c66	; 0x1c66 <calibrate_line_sensors>

void auto_calibrate()
{
	time_reset();
	set_motors(60, -60);
	while(get_ms() < 250)
     392:	0e 94 87 0d 	call	0x1b0e	; 0x1b0e <get_ms>
     396:	6a 3f       	cpi	r22, 0xFA	; 250
     398:	71 05       	cpc	r23, r1
     39a:	81 05       	cpc	r24, r1
     39c:	91 05       	cpc	r25, r1
     39e:	b0 f3       	brcs	.-20     	; 0x38c <auto_calibrate+0x12>
        calibrate_line_sensors(IR_EMITTERS_ON);
    
	set_motors(-60, 60);
     3a0:	84 ec       	ldi	r24, 0xC4	; 196
     3a2:	9f ef       	ldi	r25, 0xFF	; 255
     3a4:	6c e3       	ldi	r22, 0x3C	; 60
     3a6:	70 e0       	ldi	r23, 0x00	; 0
     3a8:	0e 94 2b 0a 	call	0x1456	; 0x1456 <set_motors>
     3ac:	03 c0       	rjmp	.+6      	; 0x3b4 <auto_calibrate+0x3a>
	while(get_ms() < 750)
        calibrate_line_sensors(IR_EMITTERS_ON);
     3ae:	81 e0       	ldi	r24, 0x01	; 1
     3b0:	0e 94 33 0e 	call	0x1c66	; 0x1c66 <calibrate_line_sensors>
	set_motors(60, -60);
	while(get_ms() < 250)
        calibrate_line_sensors(IR_EMITTERS_ON);
    
	set_motors(-60, 60);
	while(get_ms() < 750)
     3b4:	0e 94 87 0d 	call	0x1b0e	; 0x1b0e <get_ms>
     3b8:	6e 5e       	subi	r22, 0xEE	; 238
     3ba:	72 40       	sbci	r23, 0x02	; 2
     3bc:	80 40       	sbci	r24, 0x00	; 0
     3be:	90 40       	sbci	r25, 0x00	; 0
     3c0:	b0 f3       	brcs	.-20     	; 0x3ae <auto_calibrate+0x34>
        calibrate_line_sensors(IR_EMITTERS_ON);
    
	set_motors(60, -60);
     3c2:	8c e3       	ldi	r24, 0x3C	; 60
     3c4:	90 e0       	ldi	r25, 0x00	; 0
     3c6:	64 ec       	ldi	r22, 0xC4	; 196
     3c8:	7f ef       	ldi	r23, 0xFF	; 255
     3ca:	0e 94 2b 0a 	call	0x1456	; 0x1456 <set_motors>
     3ce:	03 c0       	rjmp	.+6      	; 0x3d6 <auto_calibrate+0x5c>
	while(get_ms() < 1000)
        calibrate_line_sensors(IR_EMITTERS_ON);
     3d0:	81 e0       	ldi	r24, 0x01	; 1
     3d2:	0e 94 33 0e 	call	0x1c66	; 0x1c66 <calibrate_line_sensors>
	set_motors(-60, 60);
	while(get_ms() < 750)
        calibrate_line_sensors(IR_EMITTERS_ON);
    
	set_motors(60, -60);
	while(get_ms() < 1000)
     3d6:	0e 94 87 0d 	call	0x1b0e	; 0x1b0e <get_ms>
     3da:	68 5e       	subi	r22, 0xE8	; 232
     3dc:	73 40       	sbci	r23, 0x03	; 3
     3de:	80 40       	sbci	r24, 0x00	; 0
     3e0:	90 40       	sbci	r25, 0x00	; 0
     3e2:	b0 f3       	brcs	.-20     	; 0x3d0 <auto_calibrate+0x56>
        calibrate_line_sensors(IR_EMITTERS_ON);
    
	set_motors(0, 0);
     3e4:	80 e0       	ldi	r24, 0x00	; 0
     3e6:	90 e0       	ldi	r25, 0x00	; 0
     3e8:	60 e0       	ldi	r22, 0x00	; 0
     3ea:	70 e0       	ldi	r23, 0x00	; 0
     3ec:	0e 94 2b 0a 	call	0x1456	; 0x1456 <set_motors>
}
     3f0:	08 95       	ret

000003f2 <read_next_byte>:
        }
	}
}

char read_next_byte()
{
     3f2:	ef 92       	push	r14
     3f4:	ff 92       	push	r15
     3f6:	0f 93       	push	r16
     3f8:	1f 93       	push	r17
    //Set Timeout value
	long timeout = get_ms() + 1000;
     3fa:	0e 94 87 0d 	call	0x1b0e	; 0x1b0e <get_ms>
     3fe:	7b 01       	movw	r14, r22
     400:	8c 01       	movw	r16, r24
     402:	88 ee       	ldi	r24, 0xE8	; 232
     404:	93 e0       	ldi	r25, 0x03	; 3
     406:	a0 e0       	ldi	r26, 0x00	; 0
     408:	b0 e0       	ldi	r27, 0x00	; 0
     40a:	e8 0e       	add	r14, r24
     40c:	f9 1e       	adc	r15, r25
     40e:	0a 1f       	adc	r16, r26
     410:	1b 1f       	adc	r17, r27
    
    //Wait till either we get a serial byte or we time out
	while((serial_get_received_bytes() == receive_buffer_position) && (timeout >= get_ms()) );		
     412:	0e 94 7d 0a 	call	0x14fa	; 0x14fa <serial_get_received_bytes>
     416:	90 91 1e 01 	lds	r25, 0x011E
     41a:	89 17       	cp	r24, r25
     41c:	39 f4       	brne	.+14     	; 0x42c <read_next_byte+0x3a>
     41e:	0e 94 87 0d 	call	0x1b0e	; 0x1b0e <get_ms>
     422:	e6 16       	cp	r14, r22
     424:	f7 06       	cpc	r15, r23
     426:	08 07       	cpc	r16, r24
     428:	19 07       	cpc	r17, r25
     42a:	98 f7       	brcc	.-26     	; 0x412 <read_next_byte+0x20>
    
    //If we Timeout return an ERROR, else return the received byte and increase our buffer position
	if(get_ms() >= timeout)
     42c:	0e 94 87 0d 	call	0x1b0e	; 0x1b0e <get_ms>
     430:	6e 15       	cp	r22, r14
     432:	7f 05       	cpc	r23, r15
     434:	80 07       	cpc	r24, r16
     436:	91 07       	cpc	r25, r17
     438:	40 f0       	brcs	.+16     	; 0x44a <read_next_byte+0x58>
	{
		error = 1;
     43a:	81 e0       	ldi	r24, 0x01	; 1
     43c:	90 e0       	ldi	r25, 0x00	; 0
     43e:	90 93 20 01 	sts	0x0120, r25
     442:	80 93 1f 01 	sts	0x011F, r24
     446:	9f ef       	ldi	r25, 0xFF	; 255
     448:	13 c0       	rjmp	.+38     	; 0x470 <read_next_byte+0x7e>
		return 0xFF;
	}
	else
	{
		char ret = buffer[receive_buffer_position++];
     44a:	80 91 1e 01 	lds	r24, 0x011E
     44e:	e8 2f       	mov	r30, r24
     450:	f0 e0       	ldi	r31, 0x00	; 0
     452:	e8 57       	subi	r30, 0x78	; 120
     454:	fd 4f       	sbci	r31, 0xFD	; 253
     456:	90 81       	ld	r25, Z
     458:	8f 5f       	subi	r24, 0xFF	; 255
     45a:	80 93 1e 01 	sts	0x011E, r24
        buffer[receive_buffer_position-1] = 0x00;
     45e:	e8 2f       	mov	r30, r24
     460:	f0 e0       	ldi	r31, 0x00	; 0
     462:	e9 57       	subi	r30, 0x79	; 121
     464:	fd 4f       	sbci	r31, 0xFD	; 253
     466:	10 82       	st	Z, r1
        //This is what makes a ring buffer a ring buffer, when it hits the end of the buffer it starts over
	    if (receive_buffer_position == sizeof(buffer)-1)
     468:	83 36       	cpi	r24, 0x63	; 99
     46a:	11 f4       	brne	.+4      	; 0x470 <read_next_byte+0x7e>
			receive_buffer_position = 0;
     46c:	10 92 1e 01 	sts	0x011E, r1
		
		return ret;	
	}
}
     470:	89 2f       	mov	r24, r25
     472:	1f 91       	pop	r17
     474:	0f 91       	pop	r16
     476:	ff 90       	pop	r15
     478:	ef 90       	pop	r14
     47a:	08 95       	ret

0000047c <main>:
	}
	set_motors(0,0);
}

int main()
{	
     47c:	ff 92       	push	r15
     47e:	0f 93       	push	r16
     480:	1f 93       	push	r17
     482:	cf 93       	push	r28
     484:	df 93       	push	r29
	// Does initialization of the 3pi
	initialize();
     486:	0e 94 94 01 	call	0x328	; 0x328 <initialize>
     48a:	ff 24       	eor	r15, r15
     48c:	f3 94       	inc	r15
     48e:	21 c0       	rjmp	.+66     	; 0x4d2 <main+0x56>
    		// Wait for STX, and print out battery voltage so we can keep track of it
            // @TODO if battery voltage < 4000 send out a LOW BATTERY message over serial and turn the 3pi OFF
			j = 0; //j == Number of bytes in the command that are usable
			while((command[j] = read_next_byte()) != 0x02)
            {
                clear();
     490:	0e 94 fd 06 	call	0xdfa	; 0xdfa <clear>
                print("Battery");
     494:	80 e0       	ldi	r24, 0x00	; 0
     496:	91 e0       	ldi	r25, 0x01	; 1
     498:	0e 94 e9 07 	call	0xfd2	; 0xfd2 <print>
                lcd_goto_xy(0,1);
     49c:	80 e0       	ldi	r24, 0x00	; 0
     49e:	61 e0       	ldi	r22, 0x01	; 1
     4a0:	0e 94 cd 06 	call	0xd9a	; 0xd9a <lcd_goto_xy>
     4a4:	0e 94 02 05 	call	0xa04	; 0xa04 <read_battery_millivolts_3pi>
                print_long(read_battery_millivolts());
     4a8:	a0 e0       	ldi	r26, 0x00	; 0
     4aa:	b0 e0       	ldi	r27, 0x00	; 0
     4ac:	bc 01       	movw	r22, r24
     4ae:	cd 01       	movw	r24, r26
     4b0:	0e 94 c8 07 	call	0xf90	; 0xf90 <print_long>
                print("mV");
     4b4:	88 e0       	ldi	r24, 0x08	; 8
     4b6:	91 e0       	ldi	r25, 0x01	; 1
     4b8:	0e 94 e9 07 	call	0xfd2	; 0xfd2 <print>
				toggle = !toggle;
     4bc:	80 e0       	ldi	r24, 0x00	; 0
     4be:	ff 20       	and	r15, r15
     4c0:	09 f4       	brne	.+2      	; 0x4c4 <main+0x48>
     4c2:	81 e0       	ldi	r24, 0x01	; 1
     4c4:	f8 2e       	mov	r15, r24
// NOTE: if val is 0xFF (255), this method will toggle the PORT register pin(s).
static inline void set_digital_output_value(struct IOStruct* ioPin, unsigned char val)
{
	if (val == 0xFF)
		*(ioPin->portRegister) ^= ioPin->bitmask;
	else if (val)
     4c6:	88 23       	and	r24, r24
     4c8:	11 f0       	breq	.+4      	; 0x4ce <main+0x52>
		*(ioPin->portRegister) |= ioPin->bitmask;
     4ca:	5f 9a       	sbi	0x0b, 7	; 11
     4cc:	01 c0       	rjmp	.+2      	; 0x4d0 <main+0x54>
	else
		*(ioPin->portRegister) &= ~ioPin->bitmask;
     4ce:	5f 98       	cbi	0x0b, 7	; 11
// low-level method for setting the data direction (i.e. input or output) of an pin or set of pins
// described by an IOStruct pointer.
static inline void set_data_direction(struct IOStruct* ioPin, unsigned char val)
{
	if (val)
		*(ioPin->ddrRegister) |= ioPin->bitmask;
     4d0:	57 9a       	sbi	0x0a, 7	; 10
		while(1) 
		{
    		// Wait for STX, and print out battery voltage so we can keep track of it
            // @TODO if battery voltage < 4000 send out a LOW BATTERY message over serial and turn the 3pi OFF
			j = 0; //j == Number of bytes in the command that are usable
			while((command[j] = read_next_byte()) != 0x02)
     4d2:	0e 94 f9 01 	call	0x3f2	; 0x3f2 <read_next_byte>
     4d6:	80 93 88 01 	sts	0x0188, r24
     4da:	82 30       	cpi	r24, 0x02	; 2
     4dc:	c9 f6       	brne	.-78     	; 0x490 <main+0x14>
				toggle = !toggle;
				green_led(toggle);
            }
			
			// This clears any errors that were likely set waiting for the STX of a new command to come in as well as any error that occured while getting a command eariler
			error = 0;
     4de:	10 92 20 01 	sts	0x0120, r1
     4e2:	10 92 1f 01 	sts	0x011F, r1
			j++;

			// Datalength
			command[j++] = read_next_byte();
     4e6:	0e 94 f9 01 	call	0x3f2	; 0x3f2 <read_next_byte>
     4ea:	80 93 89 01 	sts	0x0189, r24
			if(error == 1)
     4ee:	80 91 1f 01 	lds	r24, 0x011F
     4f2:	90 91 20 01 	lds	r25, 0x0120
     4f6:	01 97       	sbiw	r24, 0x01	; 1
     4f8:	09 f4       	brne	.+2      	; 0x4fc <main+0x80>
     4fa:	76 c0       	rjmp	.+236    	; 0x5e8 <main+0x16c>
				break;

			// Command
			command[j++] = read_next_byte();
     4fc:	0e 94 f9 01 	call	0x3f2	; 0x3f2 <read_next_byte>
     500:	80 93 8a 01 	sts	0x018A, r24
			if(error == 1)
     504:	80 91 1f 01 	lds	r24, 0x011F
     508:	90 91 20 01 	lds	r25, 0x0120
     50c:	01 97       	sbiw	r24, 0x01	; 1
     50e:	09 f4       	brne	.+2      	; 0x512 <main+0x96>
     510:	6b c0       	rjmp	.+214    	; 0x5e8 <main+0x16c>
				break;
            
            // If there is actual Data...
			if(command[1] > 0)
     512:	80 91 89 01 	lds	r24, 0x0189
     516:	88 23       	and	r24, r24
     518:	19 f4       	brne	.+6      	; 0x520 <main+0xa4>
     51a:	c3 e0       	ldi	r28, 0x03	; 3
     51c:	d0 e0       	ldi	r29, 0x00	; 0
     51e:	17 c0       	rjmp	.+46     	; 0x54e <main+0xd2>
     520:	c3 e0       	ldi	r28, 0x03	; 3
     522:	d0 e0       	ldi	r29, 0x00	; 0
			{
				i = (int)command[1];
				while(i--)
     524:	08 2f       	mov	r16, r24
     526:	10 e0       	ldi	r17, 0x00	; 0
     528:	0d 5f       	subi	r16, 0xFD	; 253
     52a:	1f 4f       	sbci	r17, 0xFF	; 255
     52c:	0d c0       	rjmp	.+26     	; 0x548 <main+0xcc>
				{
					command[j++] = read_next_byte();
     52e:	0e 94 f9 01 	call	0x3f2	; 0x3f2 <read_next_byte>
     532:	fe 01       	movw	r30, r28
     534:	e8 57       	subi	r30, 0x78	; 120
     536:	fe 4f       	sbci	r31, 0xFE	; 254
     538:	80 83       	st	Z, r24
     53a:	21 96       	adiw	r28, 0x01	; 1
					if(error == 1)
     53c:	80 91 1f 01 	lds	r24, 0x011F
     540:	90 91 20 01 	lds	r25, 0x0120
     544:	01 97       	sbiw	r24, 0x01	; 1
     546:	19 f0       	breq	.+6      	; 0x54e <main+0xd2>
            
            // If there is actual Data...
			if(command[1] > 0)
			{
				i = (int)command[1];
				while(i--)
     548:	0c 17       	cp	r16, r28
     54a:	1d 07       	cpc	r17, r29
     54c:	81 f7       	brne	.-32     	; 0x52e <main+0xb2>
						break;
				}
			}

			// ETX
			command[j++] = read_next_byte();
     54e:	0e 94 f9 01 	call	0x3f2	; 0x3f2 <read_next_byte>
     552:	fe 01       	movw	r30, r28
     554:	e8 57       	subi	r30, 0x78	; 120
     556:	fe 4f       	sbci	r31, 0xFE	; 254
     558:	80 83       	st	Z, r24
			if(error == 1)
     55a:	80 91 1f 01 	lds	r24, 0x011F
     55e:	90 91 20 01 	lds	r25, 0x0120
     562:	01 97       	sbiw	r24, 0x01	; 1
     564:	09 f4       	brne	.+2      	; 0x568 <main+0xec>
     566:	40 c0       	rjmp	.+128    	; 0x5e8 <main+0x16c>
						break;
				}
			}

			// ETX
			command[j++] = read_next_byte();
     568:	21 96       	adiw	r28, 0x01	; 1
			if(error == 1)
				break;
				
			// Checksum
			command[j] = read_next_byte();
     56a:	0e 94 f9 01 	call	0x3f2	; 0x3f2 <read_next_byte>
     56e:	48 2f       	mov	r20, r24
     570:	fe 01       	movw	r30, r28
     572:	e8 57       	subi	r30, 0x78	; 120
     574:	fe 4f       	sbci	r31, 0xFE	; 254
     576:	80 83       	st	Z, r24
			if(error == 1)
     578:	80 91 1f 01 	lds	r24, 0x011F
     57c:	90 91 20 01 	lds	r25, 0x0120
     580:	01 97       	sbiw	r24, 0x01	; 1
     582:	91 f1       	breq	.+100    	; 0x5e8 <main+0x16c>
				break;
     584:	90 e0       	ldi	r25, 0x00	; 0
     586:	20 e0       	ldi	r18, 0x00	; 0
     588:	30 e0       	ldi	r19, 0x00	; 0

			// calculate robot side checksum
			char LRC = 0;
			for(int p=0; p<j; p++)
				LRC ^= command[p];
     58a:	f9 01       	movw	r30, r18
     58c:	e8 57       	subi	r30, 0x78	; 120
     58e:	fe 4f       	sbci	r31, 0xFE	; 254
     590:	80 81       	ld	r24, Z
     592:	98 27       	eor	r25, r24
			if(error == 1)
				break;

			// calculate robot side checksum
			char LRC = 0;
			for(int p=0; p<j; p++)
     594:	2f 5f       	subi	r18, 0xFF	; 255
     596:	3f 4f       	sbci	r19, 0xFF	; 255
     598:	2c 17       	cp	r18, r28
     59a:	3d 07       	cpc	r19, r29
     59c:	b4 f3       	brlt	.-20     	; 0x58a <main+0x10e>
				LRC ^= command[p];
            
            // If the Calculated checksum isn't the same as the checksum sent by the control center, there is an error in the data
			if(LRC != command[j])
     59e:	94 17       	cp	r25, r20
     5a0:	19 f5       	brne	.+70     	; 0x5e8 <main+0x16c>
			/****************************************************
             * Complete/(Most Likely Correct) Command Received! *
             ****************************************************/
            
			// Now we can finaly figure out what to do with this command since it has been tested, verified
			switch(command[2])
     5a2:	80 91 8a 01 	lds	r24, 0x018A
     5a6:	81 30       	cpi	r24, 0x01	; 1
     5a8:	51 f0       	breq	.+20     	; 0x5be <main+0x142>
     5aa:	81 30       	cpi	r24, 0x01	; 1
     5ac:	28 f0       	brcs	.+10     	; 0x5b8 <main+0x13c>
     5ae:	82 30       	cpi	r24, 0x02	; 2
     5b0:	49 f0       	breq	.+18     	; 0x5c4 <main+0x148>
     5b2:	83 30       	cpi	r24, 0x03	; 3
     5b4:	91 f4       	brne	.+36     	; 0x5da <main+0x15e>
     5b6:	0b c0       	rjmp	.+22     	; 0x5ce <main+0x152>
			{ 
				case 0x00: // CALIBRATE LINE SENSORS
					auto_calibrate();
     5b8:	0e 94 bd 01 	call	0x37a	; 0x37a <auto_calibrate>
     5bc:	0e c0       	rjmp	.+28     	; 0x5da <main+0x15e>
			    break;				    
				case 0x01: // FOLLOW SEGMENT
					follow_segment();
     5be:	0e 94 dd 00 	call	0x1ba	; 0x1ba <follow_segment>
     5c2:	0b c0       	rjmp	.+22     	; 0x5da <main+0x15e>
				break;		    
				case 0x02: // TURN
					turn(command[3]);
     5c4:	80 91 8b 01 	lds	r24, 0x018B
     5c8:	0e 94 60 00 	call	0xc0	; 0xc0 <turn>
     5cc:	06 c0       	rjmp	.+12     	; 0x5da <main+0x15e>
				break;
				case 0x03: // STOP
					set_motors(0,0);
     5ce:	80 e0       	ldi	r24, 0x00	; 0
     5d0:	90 e0       	ldi	r25, 0x00	; 0
     5d2:	60 e0       	ldi	r22, 0x00	; 0
     5d4:	70 e0       	ldi	r23, 0x00	; 0
     5d6:	0e 94 2b 0a 	call	0x1456	; 0x1456 <set_motors>
					// serial_send_blocking((char *)nak, 1);
				break;
			}

			//Aknowledge that we got the command and are done acting on it
			delay_ms(50);
     5da:	82 e3       	ldi	r24, 0x32	; 50
     5dc:	90 e0       	ldi	r25, 0x00	; 0
     5de:	0e 94 21 0d 	call	0x1a42	; 0x1a42 <delay_ms>
			serial_send_blocking((char *)ack, 1);
     5e2:	8d e0       	ldi	r24, 0x0D	; 13
     5e4:	91 e0       	ldi	r25, 0x01	; 1
     5e6:	06 c0       	rjmp	.+12     	; 0x5f4 <main+0x178>
		}
        
        /*******************************************************
         * GOT AN ERROR, SEND A NAK AND START THE COMMAND OVER *
         *******************************************************/
		delay_ms(50);
     5e8:	82 e3       	ldi	r24, 0x32	; 50
     5ea:	90 e0       	ldi	r25, 0x00	; 0
     5ec:	0e 94 21 0d 	call	0x1a42	; 0x1a42 <delay_ms>
    	serial_send_blocking((char *)nak, 1);
     5f0:	8e e0       	ldi	r24, 0x0E	; 14
     5f2:	91 e0       	ldi	r25, 0x01	; 1
     5f4:	61 e0       	ldi	r22, 0x01	; 1
     5f6:	0e 94 10 0c 	call	0x1820	; 0x1820 <serial_send_blocking>
     5fa:	6b cf       	rjmp	.-298    	; 0x4d2 <main+0x56>

000005fc <start_analog_conversion>:
     5fc:	98 2f       	mov	r25, r24
     5fe:	80 32       	cpi	r24, 0x20	; 32
     600:	78 f4       	brcc	.+30     	; 0x620 <start_analog_conversion+0x24>
     602:	87 e8       	ldi	r24, 0x87	; 135
     604:	80 93 7a 00 	sts	0x007A, r24
     608:	80 91 7c 00 	lds	r24, 0x007C
     60c:	80 64       	ori	r24, 0x40	; 64
     60e:	80 76       	andi	r24, 0x60	; 96
     610:	89 2b       	or	r24, r25
     612:	80 93 7c 00 	sts	0x007C, r24
     616:	80 91 7a 00 	lds	r24, 0x007A
     61a:	80 64       	ori	r24, 0x40	; 64
     61c:	80 93 7a 00 	sts	0x007A, r24
     620:	08 95       	ret

00000622 <analog_conversion_result>:
     622:	80 91 7c 00 	lds	r24, 0x007C
     626:	85 ff       	sbrs	r24, 5
     628:	05 c0       	rjmp	.+10     	; 0x634 <analog_conversion_result+0x12>
     62a:	80 91 79 00 	lds	r24, 0x0079
     62e:	28 2f       	mov	r18, r24
     630:	30 e0       	ldi	r19, 0x00	; 0
     632:	04 c0       	rjmp	.+8      	; 0x63c <analog_conversion_result+0x1a>
     634:	20 91 78 00 	lds	r18, 0x0078
     638:	30 91 79 00 	lds	r19, 0x0079
     63c:	c9 01       	movw	r24, r18
     63e:	08 95       	ret

00000640 <set_millivolt_calibration>:
     640:	90 93 10 01 	sts	0x0110, r25
     644:	80 93 0f 01 	sts	0x010F, r24
     648:	08 95       	ret

0000064a <_ZN15OrangutanAnalogC2Ev>:
     64a:	08 95       	ret

0000064c <_ZN15OrangutanAnalogC1Ev>:
     64c:	08 95       	ret

0000064e <_ZN15OrangutanAnalog16conversionResultEv>:
     64e:	80 91 7c 00 	lds	r24, 0x007C
     652:	85 ff       	sbrs	r24, 5
     654:	05 c0       	rjmp	.+10     	; 0x660 <_ZN15OrangutanAnalog16conversionResultEv+0x12>
     656:	80 91 79 00 	lds	r24, 0x0079
     65a:	28 2f       	mov	r18, r24
     65c:	30 e0       	ldi	r19, 0x00	; 0
     65e:	04 c0       	rjmp	.+8      	; 0x668 <_ZN15OrangutanAnalog16conversionResultEv+0x1a>
     660:	20 91 78 00 	lds	r18, 0x0078
     664:	30 91 79 00 	lds	r19, 0x0079
     668:	c9 01       	movw	r24, r18
     66a:	08 95       	ret

0000066c <_ZN15OrangutanAnalog15startConversionEhh>:
     66c:	28 2f       	mov	r18, r24
     66e:	80 32       	cpi	r24, 0x20	; 32
     670:	b0 f4       	brcc	.+44     	; 0x69e <_ZN15OrangutanAnalog15startConversionEhh+0x32>
     672:	87 e8       	ldi	r24, 0x87	; 135
     674:	80 93 7a 00 	sts	0x007A, r24
     678:	80 91 7c 00 	lds	r24, 0x007C
     67c:	98 2f       	mov	r25, r24
     67e:	90 64       	ori	r25, 0x40	; 64
     680:	66 23       	and	r22, r22
     682:	11 f0       	breq	.+4      	; 0x688 <_ZN15OrangutanAnalog15startConversionEhh+0x1c>
     684:	80 6c       	ori	r24, 0xC0	; 192
     686:	02 c0       	rjmp	.+4      	; 0x68c <_ZN15OrangutanAnalog15startConversionEhh+0x20>
     688:	89 2f       	mov	r24, r25
     68a:	8f 77       	andi	r24, 0x7F	; 127
     68c:	80 7e       	andi	r24, 0xE0	; 224
     68e:	82 2b       	or	r24, r18
     690:	80 93 7c 00 	sts	0x007C, r24
     694:	80 91 7a 00 	lds	r24, 0x007A
     698:	80 64       	ori	r24, 0x40	; 64
     69a:	80 93 7a 00 	sts	0x007A, r24
     69e:	08 95       	ret

000006a0 <_ZN15OrangutanAnalog4readEh>:
     6a0:	98 2f       	mov	r25, r24
     6a2:	80 32       	cpi	r24, 0x20	; 32
     6a4:	78 f4       	brcc	.+30     	; 0x6c4 <_ZN15OrangutanAnalog4readEh+0x24>
     6a6:	87 e8       	ldi	r24, 0x87	; 135
     6a8:	80 93 7a 00 	sts	0x007A, r24
     6ac:	80 91 7c 00 	lds	r24, 0x007C
     6b0:	80 64       	ori	r24, 0x40	; 64
     6b2:	80 76       	andi	r24, 0x60	; 96
     6b4:	89 2b       	or	r24, r25
     6b6:	80 93 7c 00 	sts	0x007C, r24
     6ba:	80 91 7a 00 	lds	r24, 0x007A
     6be:	80 64       	ori	r24, 0x40	; 64
     6c0:	80 93 7a 00 	sts	0x007A, r24
     6c4:	80 91 7a 00 	lds	r24, 0x007A
     6c8:	86 fd       	sbrc	r24, 6
     6ca:	fc cf       	rjmp	.-8      	; 0x6c4 <_ZN15OrangutanAnalog4readEh+0x24>
     6cc:	80 91 7c 00 	lds	r24, 0x007C
     6d0:	85 ff       	sbrs	r24, 5
     6d2:	05 c0       	rjmp	.+10     	; 0x6de <_ZN15OrangutanAnalog4readEh+0x3e>
     6d4:	80 91 79 00 	lds	r24, 0x0079
     6d8:	28 2f       	mov	r18, r24
     6da:	30 e0       	ldi	r19, 0x00	; 0
     6dc:	04 c0       	rjmp	.+8      	; 0x6e6 <_ZN15OrangutanAnalog4readEh+0x46>
     6de:	20 91 78 00 	lds	r18, 0x0078
     6e2:	30 91 79 00 	lds	r19, 0x0079
     6e6:	c9 01       	movw	r24, r18
     6e8:	08 95       	ret

000006ea <analog_read>:
     6ea:	0e 94 50 03 	call	0x6a0	; 0x6a0 <_ZN15OrangutanAnalog4readEh>
     6ee:	08 95       	ret

000006f0 <_ZN15OrangutanAnalog11readAverageEhj>:
     6f0:	ef 92       	push	r14
     6f2:	ff 92       	push	r15
     6f4:	0f 93       	push	r16
     6f6:	1f 93       	push	r17
     6f8:	98 2f       	mov	r25, r24
     6fa:	80 32       	cpi	r24, 0x20	; 32
     6fc:	78 f4       	brcc	.+30     	; 0x71c <_ZN15OrangutanAnalog11readAverageEhj+0x2c>
     6fe:	87 e8       	ldi	r24, 0x87	; 135
     700:	80 93 7a 00 	sts	0x007A, r24
     704:	80 91 7c 00 	lds	r24, 0x007C
     708:	80 64       	ori	r24, 0x40	; 64
     70a:	80 76       	andi	r24, 0x60	; 96
     70c:	89 2b       	or	r24, r25
     70e:	80 93 7c 00 	sts	0x007C, r24
     712:	80 91 7a 00 	lds	r24, 0x007A
     716:	80 64       	ori	r24, 0x40	; 64
     718:	80 93 7a 00 	sts	0x007A, r24
     71c:	80 91 7a 00 	lds	r24, 0x007A
     720:	86 fd       	sbrc	r24, 6
     722:	fc cf       	rjmp	.-8      	; 0x71c <_ZN15OrangutanAnalog11readAverageEhj+0x2c>
     724:	fb 01       	movw	r30, r22
     726:	ee 24       	eor	r14, r14
     728:	ff 24       	eor	r15, r15
     72a:	87 01       	movw	r16, r14
     72c:	80 91 7a 00 	lds	r24, 0x007A
     730:	80 64       	ori	r24, 0x40	; 64
     732:	80 93 7a 00 	sts	0x007A, r24
     736:	80 91 7a 00 	lds	r24, 0x007A
     73a:	86 fd       	sbrc	r24, 6
     73c:	fc cf       	rjmp	.-8      	; 0x736 <_ZN15OrangutanAnalog11readAverageEhj+0x46>
     73e:	80 91 7c 00 	lds	r24, 0x007C
     742:	85 ff       	sbrs	r24, 5
     744:	04 c0       	rjmp	.+8      	; 0x74e <_ZN15OrangutanAnalog11readAverageEhj+0x5e>
     746:	80 91 79 00 	lds	r24, 0x0079
     74a:	90 e0       	ldi	r25, 0x00	; 0
     74c:	04 c0       	rjmp	.+8      	; 0x756 <_ZN15OrangutanAnalog11readAverageEhj+0x66>
     74e:	80 91 78 00 	lds	r24, 0x0078
     752:	90 91 79 00 	lds	r25, 0x0079
     756:	a0 e0       	ldi	r26, 0x00	; 0
     758:	b0 e0       	ldi	r27, 0x00	; 0
     75a:	e8 0e       	add	r14, r24
     75c:	f9 1e       	adc	r15, r25
     75e:	0a 1f       	adc	r16, r26
     760:	1b 1f       	adc	r17, r27
     762:	31 97       	sbiw	r30, 0x01	; 1
     764:	19 f7       	brne	.-58     	; 0x72c <_ZN15OrangutanAnalog11readAverageEhj+0x3c>
     766:	cb 01       	movw	r24, r22
     768:	96 95       	lsr	r25
     76a:	87 95       	ror	r24
     76c:	60 34       	cpi	r22, 0x40	; 64
     76e:	71 05       	cpc	r23, r1
     770:	38 f4       	brcc	.+14     	; 0x780 <_ZN15OrangutanAnalog11readAverageEhj+0x90>
     772:	8e 0d       	add	r24, r14
     774:	9f 1d       	adc	r25, r15
     776:	70 e0       	ldi	r23, 0x00	; 0
     778:	0e 94 a6 15 	call	0x2b4c	; 0x2b4c <__udivmodhi4>
     77c:	9b 01       	movw	r18, r22
     77e:	0d c0       	rjmp	.+26     	; 0x79a <_ZN15OrangutanAnalog11readAverageEhj+0xaa>
     780:	a0 e0       	ldi	r26, 0x00	; 0
     782:	b0 e0       	ldi	r27, 0x00	; 0
     784:	e8 0e       	add	r14, r24
     786:	f9 1e       	adc	r15, r25
     788:	0a 1f       	adc	r16, r26
     78a:	1b 1f       	adc	r17, r27
     78c:	9b 01       	movw	r18, r22
     78e:	40 e0       	ldi	r20, 0x00	; 0
     790:	50 e0       	ldi	r21, 0x00	; 0
     792:	c8 01       	movw	r24, r16
     794:	b7 01       	movw	r22, r14
     796:	0e 94 cd 15 	call	0x2b9a	; 0x2b9a <__udivmodsi4>
     79a:	c9 01       	movw	r24, r18
     79c:	1f 91       	pop	r17
     79e:	0f 91       	pop	r16
     7a0:	ff 90       	pop	r15
     7a2:	ef 90       	pop	r14
     7a4:	08 95       	ret

000007a6 <read_trimpot>:
     7a6:	87 e0       	ldi	r24, 0x07	; 7
     7a8:	64 e1       	ldi	r22, 0x14	; 20
     7aa:	70 e0       	ldi	r23, 0x00	; 0
     7ac:	0e 94 78 03 	call	0x6f0	; 0x6f0 <_ZN15OrangutanAnalog11readAverageEhj>
     7b0:	08 95       	ret

000007b2 <analog_read_average>:
     7b2:	0e 94 78 03 	call	0x6f0	; 0x6f0 <_ZN15OrangutanAnalog11readAverageEhj>
     7b6:	08 95       	ret

000007b8 <_ZN15OrangutanAnalog23setMillivoltCalibrationEj>:
     7b8:	90 93 10 01 	sts	0x0110, r25
     7bc:	80 93 0f 01 	sts	0x010F, r24
     7c0:	08 95       	ret

000007c2 <_ZN15OrangutanAnalog17readVCCMillivoltsEv>:
     7c2:	1f 93       	push	r17
     7c4:	10 91 7c 00 	lds	r17, 0x007C
     7c8:	80 91 7c 00 	lds	r24, 0x007C
     7cc:	8f 7d       	andi	r24, 0xDF	; 223
     7ce:	80 93 7c 00 	sts	0x007C, r24
     7d2:	8e e1       	ldi	r24, 0x1E	; 30
     7d4:	64 e1       	ldi	r22, 0x14	; 20
     7d6:	70 e0       	ldi	r23, 0x00	; 0
     7d8:	0e 94 78 03 	call	0x6f0	; 0x6f0 <_ZN15OrangutanAnalog11readAverageEhj>
     7dc:	8e e1       	ldi	r24, 0x1E	; 30
     7de:	64 e1       	ldi	r22, 0x14	; 20
     7e0:	70 e0       	ldi	r23, 0x00	; 0
     7e2:	0e 94 78 03 	call	0x6f0	; 0x6f0 <_ZN15OrangutanAnalog11readAverageEhj>
     7e6:	9c 01       	movw	r18, r24
     7e8:	15 fd       	sbrc	r17, 5
     7ea:	04 c0       	rjmp	.+8      	; 0x7f4 <_ZN15OrangutanAnalog17readVCCMillivoltsEv+0x32>
     7ec:	80 91 7c 00 	lds	r24, 0x007C
     7f0:	8f 7d       	andi	r24, 0xDF	; 223
     7f2:	03 c0       	rjmp	.+6      	; 0x7fa <_ZN15OrangutanAnalog17readVCCMillivoltsEv+0x38>
     7f4:	80 91 7c 00 	lds	r24, 0x007C
     7f8:	80 62       	ori	r24, 0x20	; 32
     7fa:	80 93 7c 00 	sts	0x007C, r24
     7fe:	b9 01       	movw	r22, r18
     800:	76 95       	lsr	r23
     802:	67 95       	ror	r22
     804:	80 e0       	ldi	r24, 0x00	; 0
     806:	90 e0       	ldi	r25, 0x00	; 0
     808:	6c 54       	subi	r22, 0x4C	; 76
     80a:	74 4d       	sbci	r23, 0xD4	; 212
     80c:	8e 4e       	sbci	r24, 0xEE	; 238
     80e:	9f 4f       	sbci	r25, 0xFF	; 255
     810:	40 e0       	ldi	r20, 0x00	; 0
     812:	50 e0       	ldi	r21, 0x00	; 0
     814:	0e 94 cd 15 	call	0x2b9a	; 0x2b9a <__udivmodsi4>
     818:	c9 01       	movw	r24, r18
     81a:	1f 91       	pop	r17
     81c:	08 95       	ret

0000081e <read_vcc_millivolts>:
     81e:	0e 94 e1 03 	call	0x7c2	; 0x7c2 <_ZN15OrangutanAnalog17readVCCMillivoltsEv>
     822:	08 95       	ret

00000824 <_ZN15OrangutanAnalog12toMillivoltsEj>:
     824:	a0 e0       	ldi	r26, 0x00	; 0
     826:	b0 e0       	ldi	r27, 0x00	; 0
     828:	20 91 0f 01 	lds	r18, 0x010F
     82c:	30 91 10 01 	lds	r19, 0x0110
     830:	40 e0       	ldi	r20, 0x00	; 0
     832:	50 e0       	ldi	r21, 0x00	; 0
     834:	bc 01       	movw	r22, r24
     836:	cd 01       	movw	r24, r26
     838:	0e 94 87 15 	call	0x2b0e	; 0x2b0e <__mulsi3>
     83c:	9b 01       	movw	r18, r22
     83e:	ac 01       	movw	r20, r24
     840:	80 91 7c 00 	lds	r24, 0x007C
     844:	85 ff       	sbrs	r24, 5
     846:	0b c0       	rjmp	.+22     	; 0x85e <_ZN15OrangutanAnalog12toMillivoltsEj+0x3a>
     848:	b9 01       	movw	r22, r18
     84a:	ca 01       	movw	r24, r20
     84c:	61 58       	subi	r22, 0x81	; 129
     84e:	7f 4f       	sbci	r23, 0xFF	; 255
     850:	8f 4f       	sbci	r24, 0xFF	; 255
     852:	9f 4f       	sbci	r25, 0xFF	; 255
     854:	2f ef       	ldi	r18, 0xFF	; 255
     856:	30 e0       	ldi	r19, 0x00	; 0
     858:	40 e0       	ldi	r20, 0x00	; 0
     85a:	50 e0       	ldi	r21, 0x00	; 0
     85c:	0a c0       	rjmp	.+20     	; 0x872 <_ZN15OrangutanAnalog12toMillivoltsEj+0x4e>
     85e:	b9 01       	movw	r22, r18
     860:	ca 01       	movw	r24, r20
     862:	61 50       	subi	r22, 0x01	; 1
     864:	7e 4f       	sbci	r23, 0xFE	; 254
     866:	8f 4f       	sbci	r24, 0xFF	; 255
     868:	9f 4f       	sbci	r25, 0xFF	; 255
     86a:	2f ef       	ldi	r18, 0xFF	; 255
     86c:	33 e0       	ldi	r19, 0x03	; 3
     86e:	40 e0       	ldi	r20, 0x00	; 0
     870:	50 e0       	ldi	r21, 0x00	; 0
     872:	0e 94 cd 15 	call	0x2b9a	; 0x2b9a <__udivmodsi4>
     876:	c9 01       	movw	r24, r18
     878:	08 95       	ret

0000087a <_ZN15OrangutanAnalog21readAverageMillivoltsEhj>:
     87a:	0e 94 78 03 	call	0x6f0	; 0x6f0 <_ZN15OrangutanAnalog11readAverageEhj>
     87e:	0e 94 12 04 	call	0x824	; 0x824 <_ZN15OrangutanAnalog12toMillivoltsEj>
     882:	08 95       	ret

00000884 <analog_read_average_millivolts>:
     884:	0e 94 3d 04 	call	0x87a	; 0x87a <_ZN15OrangutanAnalog21readAverageMillivoltsEhj>
     888:	08 95       	ret

0000088a <_ZN15OrangutanAnalog26conversionResultMillivoltsEv>:
     88a:	80 91 7c 00 	lds	r24, 0x007C
     88e:	85 ff       	sbrs	r24, 5
     890:	06 c0       	rjmp	.+12     	; 0x89e <_ZN15OrangutanAnalog26conversionResultMillivoltsEv+0x14>
     892:	80 91 79 00 	lds	r24, 0x0079
     896:	90 e0       	ldi	r25, 0x00	; 0
     898:	0e 94 12 04 	call	0x824	; 0x824 <_ZN15OrangutanAnalog12toMillivoltsEj>
     89c:	08 95       	ret
     89e:	80 91 78 00 	lds	r24, 0x0078
     8a2:	90 91 79 00 	lds	r25, 0x0079
     8a6:	0e 94 12 04 	call	0x824	; 0x824 <_ZN15OrangutanAnalog12toMillivoltsEj>
     8aa:	08 95       	ret

000008ac <_ZN15OrangutanAnalog14readMillivoltsEh>:
     8ac:	98 2f       	mov	r25, r24
     8ae:	80 32       	cpi	r24, 0x20	; 32
     8b0:	78 f4       	brcc	.+30     	; 0x8d0 <_ZN15OrangutanAnalog14readMillivoltsEh+0x24>
     8b2:	87 e8       	ldi	r24, 0x87	; 135
     8b4:	80 93 7a 00 	sts	0x007A, r24
     8b8:	80 91 7c 00 	lds	r24, 0x007C
     8bc:	80 64       	ori	r24, 0x40	; 64
     8be:	80 76       	andi	r24, 0x60	; 96
     8c0:	89 2b       	or	r24, r25
     8c2:	80 93 7c 00 	sts	0x007C, r24
     8c6:	80 91 7a 00 	lds	r24, 0x007A
     8ca:	80 64       	ori	r24, 0x40	; 64
     8cc:	80 93 7a 00 	sts	0x007A, r24
     8d0:	80 91 7a 00 	lds	r24, 0x007A
     8d4:	86 fd       	sbrc	r24, 6
     8d6:	fc cf       	rjmp	.-8      	; 0x8d0 <_ZN15OrangutanAnalog14readMillivoltsEh+0x24>
     8d8:	0e 94 45 04 	call	0x88a	; 0x88a <_ZN15OrangutanAnalog26conversionResultMillivoltsEv>
     8dc:	08 95       	ret

000008de <analog_read_millivolts>:
     8de:	0e 94 56 04 	call	0x8ac	; 0x8ac <_ZN15OrangutanAnalog14readMillivoltsEh>
     8e2:	08 95       	ret

000008e4 <analog_conversion_result_millivolts>:
     8e4:	0e 94 45 04 	call	0x88a	; 0x88a <_ZN15OrangutanAnalog26conversionResultMillivoltsEv>
     8e8:	08 95       	ret

000008ea <read_trimpot_millivolts>:
     8ea:	87 e0       	ldi	r24, 0x07	; 7
     8ec:	64 e1       	ldi	r22, 0x14	; 20
     8ee:	70 e0       	ldi	r23, 0x00	; 0
     8f0:	0e 94 78 03 	call	0x6f0	; 0x6f0 <_ZN15OrangutanAnalog11readAverageEhj>
     8f4:	0e 94 12 04 	call	0x824	; 0x824 <_ZN15OrangutanAnalog12toMillivoltsEj>
     8f8:	08 95       	ret

000008fa <to_millivolts>:
     8fa:	0e 94 12 04 	call	0x824	; 0x824 <_ZN15OrangutanAnalog12toMillivoltsEj>
     8fe:	08 95       	ret

00000900 <_ZN15OrangutanAnalog16readTemperatureFEv>:
     900:	1f 93       	push	r17
     902:	10 91 7c 00 	lds	r17, 0x007C
     906:	80 91 7c 00 	lds	r24, 0x007C
     90a:	8f 7d       	andi	r24, 0xDF	; 223
     90c:	80 93 7c 00 	sts	0x007C, r24
     910:	86 e0       	ldi	r24, 0x06	; 6
     912:	64 e1       	ldi	r22, 0x14	; 20
     914:	70 e0       	ldi	r23, 0x00	; 0
     916:	0e 94 3d 04 	call	0x87a	; 0x87a <_ZN15OrangutanAnalog21readAverageMillivoltsEhj>
     91a:	9c 01       	movw	r18, r24
     91c:	15 fd       	sbrc	r17, 5
     91e:	04 c0       	rjmp	.+8      	; 0x928 <_ZN15OrangutanAnalog16readTemperatureFEv+0x28>
     920:	80 91 7c 00 	lds	r24, 0x007C
     924:	8f 7d       	andi	r24, 0xDF	; 223
     926:	03 c0       	rjmp	.+6      	; 0x92e <_ZN15OrangutanAnalog16readTemperatureFEv+0x2e>
     928:	80 91 7c 00 	lds	r24, 0x007C
     92c:	80 62       	ori	r24, 0x20	; 32
     92e:	80 93 7c 00 	sts	0x007C, r24
     932:	c9 01       	movw	r24, r18
     934:	88 0f       	add	r24, r24
     936:	99 1f       	adc	r25, r25
     938:	82 0f       	add	r24, r18
     93a:	93 1f       	adc	r25, r19
     93c:	88 0f       	add	r24, r24
     93e:	99 1f       	adc	r25, r25
     940:	88 0f       	add	r24, r24
     942:	99 1f       	adc	r25, r25
     944:	8a 57       	subi	r24, 0x7A	; 122
     946:	92 40       	sbci	r25, 0x02	; 2
     948:	6d e0       	ldi	r22, 0x0D	; 13
     94a:	70 e0       	ldi	r23, 0x00	; 0
     94c:	0e 94 ba 15 	call	0x2b74	; 0x2b74 <__divmodhi4>
     950:	cb 01       	movw	r24, r22
     952:	1f 91       	pop	r17
     954:	08 95       	ret

00000956 <read_temperature_f>:
     956:	0e 94 80 04 	call	0x900	; 0x900 <_ZN15OrangutanAnalog16readTemperatureFEv>
     95a:	08 95       	ret

0000095c <_ZN15OrangutanAnalog16readTemperatureCEv>:
     95c:	1f 93       	push	r17
     95e:	10 91 7c 00 	lds	r17, 0x007C
     962:	80 91 7c 00 	lds	r24, 0x007C
     966:	8f 7d       	andi	r24, 0xDF	; 223
     968:	80 93 7c 00 	sts	0x007C, r24
     96c:	86 e0       	ldi	r24, 0x06	; 6
     96e:	64 e1       	ldi	r22, 0x14	; 20
     970:	70 e0       	ldi	r23, 0x00	; 0
     972:	0e 94 3d 04 	call	0x87a	; 0x87a <_ZN15OrangutanAnalog21readAverageMillivoltsEhj>
     976:	9c 01       	movw	r18, r24
     978:	15 fd       	sbrc	r17, 5
     97a:	04 c0       	rjmp	.+8      	; 0x984 <_ZN15OrangutanAnalog16readTemperatureCEv+0x28>
     97c:	80 91 7c 00 	lds	r24, 0x007C
     980:	8f 7d       	andi	r24, 0xDF	; 223
     982:	03 c0       	rjmp	.+6      	; 0x98a <_ZN15OrangutanAnalog16readTemperatureCEv+0x2e>
     984:	80 91 7c 00 	lds	r24, 0x007C
     988:	80 62       	ori	r24, 0x20	; 32
     98a:	80 93 7c 00 	sts	0x007C, r24
     98e:	84 e1       	ldi	r24, 0x14	; 20
     990:	90 e0       	ldi	r25, 0x00	; 0
     992:	ac 01       	movw	r20, r24
     994:	24 9f       	mul	r18, r20
     996:	c0 01       	movw	r24, r0
     998:	25 9f       	mul	r18, r21
     99a:	90 0d       	add	r25, r0
     99c:	34 9f       	mul	r19, r20
     99e:	90 0d       	add	r25, r0
     9a0:	11 24       	eor	r1, r1
     9a2:	8e 52       	subi	r24, 0x2E	; 46
     9a4:	9f 41       	sbci	r25, 0x1F	; 31
     9a6:	67 e2       	ldi	r22, 0x27	; 39
     9a8:	70 e0       	ldi	r23, 0x00	; 0
     9aa:	0e 94 ba 15 	call	0x2b74	; 0x2b74 <__divmodhi4>
     9ae:	cb 01       	movw	r24, r22
     9b0:	1f 91       	pop	r17
     9b2:	08 95       	ret

000009b4 <read_temperature_c>:
     9b4:	0e 94 ae 04 	call	0x95c	; 0x95c <_ZN15OrangutanAnalog16readTemperatureCEv>
     9b8:	08 95       	ret

000009ba <_ZN15OrangutanAnalog25readBatteryMillivolts_3piEv>:
     9ba:	1f 93       	push	r17
     9bc:	10 91 7c 00 	lds	r17, 0x007C
     9c0:	80 91 7c 00 	lds	r24, 0x007C
     9c4:	8f 7d       	andi	r24, 0xDF	; 223
     9c6:	80 93 7c 00 	sts	0x007C, r24
     9ca:	86 e0       	ldi	r24, 0x06	; 6
     9cc:	6a e0       	ldi	r22, 0x0A	; 10
     9ce:	70 e0       	ldi	r23, 0x00	; 0
     9d0:	0e 94 3d 04 	call	0x87a	; 0x87a <_ZN15OrangutanAnalog21readAverageMillivoltsEhj>
     9d4:	ac 01       	movw	r20, r24
     9d6:	15 fd       	sbrc	r17, 5
     9d8:	04 c0       	rjmp	.+8      	; 0x9e2 <_ZN15OrangutanAnalog25readBatteryMillivolts_3piEv+0x28>
     9da:	80 91 7c 00 	lds	r24, 0x007C
     9de:	8f 7d       	andi	r24, 0xDF	; 223
     9e0:	03 c0       	rjmp	.+6      	; 0x9e8 <_ZN15OrangutanAnalog25readBatteryMillivolts_3piEv+0x2e>
     9e2:	80 91 7c 00 	lds	r24, 0x007C
     9e6:	80 62       	ori	r24, 0x20	; 32
     9e8:	80 93 7c 00 	sts	0x007C, r24
     9ec:	9a 01       	movw	r18, r20
     9ee:	22 0f       	add	r18, r18
     9f0:	33 1f       	adc	r19, r19
     9f2:	24 0f       	add	r18, r20
     9f4:	35 1f       	adc	r19, r21
     9f6:	2f 5f       	subi	r18, 0xFF	; 255
     9f8:	3f 4f       	sbci	r19, 0xFF	; 255
     9fa:	36 95       	lsr	r19
     9fc:	27 95       	ror	r18
     9fe:	c9 01       	movw	r24, r18
     a00:	1f 91       	pop	r17
     a02:	08 95       	ret

00000a04 <read_battery_millivolts_3pi>:
     a04:	0e 94 dd 04 	call	0x9ba	; 0x9ba <_ZN15OrangutanAnalog25readBatteryMillivolts_3piEv>
     a08:	08 95       	ret

00000a0a <_ZN15OrangutanAnalog24readBatteryMillivolts_SVEv>:
     a0a:	1f 93       	push	r17
     a0c:	10 91 7c 00 	lds	r17, 0x007C
     a10:	80 91 7c 00 	lds	r24, 0x007C
     a14:	8f 7d       	andi	r24, 0xDF	; 223
     a16:	80 93 7c 00 	sts	0x007C, r24
     a1a:	86 e0       	ldi	r24, 0x06	; 6
     a1c:	6a e0       	ldi	r22, 0x0A	; 10
     a1e:	70 e0       	ldi	r23, 0x00	; 0
     a20:	0e 94 3d 04 	call	0x87a	; 0x87a <_ZN15OrangutanAnalog21readAverageMillivoltsEhj>
     a24:	ac 01       	movw	r20, r24
     a26:	15 fd       	sbrc	r17, 5
     a28:	04 c0       	rjmp	.+8      	; 0xa32 <_ZN15OrangutanAnalog24readBatteryMillivolts_SVEv+0x28>
     a2a:	80 91 7c 00 	lds	r24, 0x007C
     a2e:	8f 7d       	andi	r24, 0xDF	; 223
     a30:	03 c0       	rjmp	.+6      	; 0xa38 <_ZN15OrangutanAnalog24readBatteryMillivolts_SVEv+0x2e>
     a32:	80 91 7c 00 	lds	r24, 0x007C
     a36:	80 62       	ori	r24, 0x20	; 32
     a38:	80 93 7c 00 	sts	0x007C, r24
     a3c:	9a 01       	movw	r18, r20
     a3e:	22 0f       	add	r18, r18
     a40:	33 1f       	adc	r19, r19
     a42:	24 0f       	add	r18, r20
     a44:	35 1f       	adc	r19, r21
     a46:	c9 01       	movw	r24, r18
     a48:	1f 91       	pop	r17
     a4a:	08 95       	ret

00000a4c <read_battery_millivolts_sv168>:
     a4c:	0e 94 05 05 	call	0xa0a	; 0xa0a <_ZN15OrangutanAnalog24readBatteryMillivolts_SVEv>
     a50:	08 95       	ret

00000a52 <read_battery_millivolts_sv>:
     a52:	0e 94 05 05 	call	0xa0a	; 0xa0a <_ZN15OrangutanAnalog24readBatteryMillivolts_SVEv>
     a56:	08 95       	ret

00000a58 <_ZN12OrangutanLCDC2Ev>:
     a58:	08 95       	ret

00000a5a <_ZN12OrangutanLCDC1Ev>:
     a5a:	08 95       	ret

00000a5c <void_getchar>:
     a5c:	80 e0       	ldi	r24, 0x00	; 0
     a5e:	90 e0       	ldi	r25, 0x00	; 0
     a60:	08 95       	ret

00000a62 <_ZN12OrangutanLCD8busyWaitEv>:
     a62:	ef 92       	push	r14
     a64:	ff 92       	push	r15
     a66:	0f 93       	push	r16
     a68:	1f 93       	push	r17
     a6a:	6a b1       	in	r22, 0x0a	; 10
     a6c:	57 98       	cbi	0x0a, 7	; 10
     a6e:	5a 98       	cbi	0x0b, 2	; 11
     a70:	28 9a       	sbi	0x05, 0	; 5
     a72:	e0 90 25 01 	lds	r14, 0x0125
     a76:	f0 90 26 01 	lds	r15, 0x0126
     a7a:	00 91 27 01 	lds	r16, 0x0127
     a7e:	10 91 28 01 	lds	r17, 0x0128
     a82:	20 e0       	ldi	r18, 0x00	; 0
     a84:	30 e0       	ldi	r19, 0x00	; 0
     a86:	41 e0       	ldi	r20, 0x01	; 1
     a88:	50 e0       	ldi	r21, 0x00	; 0
     a8a:	ca 01       	movw	r24, r20
     a8c:	6f 93       	push	r22
     a8e:	64 e0       	ldi	r22, 0x04	; 4
     a90:	6a 95       	dec	r22
     a92:	f1 f7       	brne	.-4      	; 0xa90 <_ZN12OrangutanLCD8busyWaitEv+0x2e>
     a94:	6f 91       	pop	r22
     a96:	01 97       	sbiw	r24, 0x01	; 1
     a98:	c9 f7       	brne	.-14     	; 0xa8c <_ZN12OrangutanLCD8busyWaitEv+0x2a>
     a9a:	5c 9a       	sbi	0x0b, 4	; 11
     a9c:	ca 01       	movw	r24, r20
     a9e:	6f 93       	push	r22
     aa0:	64 e0       	ldi	r22, 0x04	; 4
     aa2:	6a 95       	dec	r22
     aa4:	f1 f7       	brne	.-4      	; 0xaa2 <_ZN12OrangutanLCD8busyWaitEv+0x40>
     aa6:	6f 91       	pop	r22
     aa8:	01 97       	sbiw	r24, 0x01	; 1
     aaa:	c9 f7       	brne	.-14     	; 0xa9e <_ZN12OrangutanLCD8busyWaitEv+0x3c>
     aac:	89 b1       	in	r24, 0x09	; 9
     aae:	5c 98       	cbi	0x0b, 4	; 11
     ab0:	fa 01       	movw	r30, r20
     ab2:	6f 93       	push	r22
     ab4:	64 e0       	ldi	r22, 0x04	; 4
     ab6:	6a 95       	dec	r22
     ab8:	f1 f7       	brne	.-4      	; 0xab6 <_ZN12OrangutanLCD8busyWaitEv+0x54>
     aba:	6f 91       	pop	r22
     abc:	31 97       	sbiw	r30, 0x01	; 1
     abe:	c9 f7       	brne	.-14     	; 0xab2 <_ZN12OrangutanLCD8busyWaitEv+0x50>
     ac0:	5c 9a       	sbi	0x0b, 4	; 11
     ac2:	fa 01       	movw	r30, r20
     ac4:	6f 93       	push	r22
     ac6:	64 e0       	ldi	r22, 0x04	; 4
     ac8:	6a 95       	dec	r22
     aca:	f1 f7       	brne	.-4      	; 0xac8 <_ZN12OrangutanLCD8busyWaitEv+0x66>
     acc:	6f 91       	pop	r22
     ace:	31 97       	sbiw	r30, 0x01	; 1
     ad0:	c9 f7       	brne	.-14     	; 0xac4 <_ZN12OrangutanLCD8busyWaitEv+0x62>
     ad2:	5c 98       	cbi	0x0b, 4	; 11
     ad4:	87 ff       	sbrs	r24, 7
     ad6:	0b c0       	rjmp	.+22     	; 0xaee <_ZN12OrangutanLCD8busyWaitEv+0x8c>
     ad8:	2c 5f       	subi	r18, 0xFC	; 252
     ada:	3f 4f       	sbci	r19, 0xFF	; 255
     adc:	c9 01       	movw	r24, r18
     ade:	a0 e0       	ldi	r26, 0x00	; 0
     ae0:	b0 e0       	ldi	r27, 0x00	; 0
     ae2:	8e 15       	cp	r24, r14
     ae4:	9f 05       	cpc	r25, r15
     ae6:	a0 07       	cpc	r26, r16
     ae8:	b1 07       	cpc	r27, r17
     aea:	08 f4       	brcc	.+2      	; 0xaee <_ZN12OrangutanLCD8busyWaitEv+0x8c>
     aec:	ce cf       	rjmp	.-100    	; 0xa8a <_ZN12OrangutanLCD8busyWaitEv+0x28>
     aee:	6a b9       	out	0x0a, r22	; 10
     af0:	1f 91       	pop	r17
     af2:	0f 91       	pop	r16
     af4:	ff 90       	pop	r15
     af6:	ef 90       	pop	r14
     af8:	08 95       	ret

00000afa <_ZN12OrangutanLCD8sendDataEh>:
     afa:	65 b1       	in	r22, 0x05	; 5
     afc:	90 e0       	ldi	r25, 0x00	; 0
     afe:	ac 01       	movw	r20, r24
     b00:	41 70       	andi	r20, 0x01	; 1
     b02:	50 70       	andi	r21, 0x00	; 0
     b04:	44 0f       	add	r20, r20
     b06:	55 1f       	adc	r21, r21
     b08:	9c 01       	movw	r18, r24
     b0a:	26 70       	andi	r18, 0x06	; 6
     b0c:	30 70       	andi	r19, 0x00	; 0
     b0e:	53 e0       	ldi	r21, 0x03	; 3
     b10:	22 0f       	add	r18, r18
     b12:	33 1f       	adc	r19, r19
     b14:	5a 95       	dec	r21
     b16:	e1 f7       	brne	.-8      	; 0xb10 <_ZN12OrangutanLCD8sendDataEh+0x16>
     b18:	42 2b       	or	r20, r18
     b1a:	6d 7c       	andi	r22, 0xCD	; 205
     b1c:	46 2b       	or	r20, r22
     b1e:	45 b9       	out	0x05, r20	; 5
     b20:	2b b1       	in	r18, 0x0b	; 11
     b22:	88 70       	andi	r24, 0x08	; 8
     b24:	90 70       	andi	r25, 0x00	; 0
     b26:	34 e0       	ldi	r19, 0x04	; 4
     b28:	88 0f       	add	r24, r24
     b2a:	99 1f       	adc	r25, r25
     b2c:	3a 95       	dec	r19
     b2e:	e1 f7       	brne	.-8      	; 0xb28 <_ZN12OrangutanLCD8sendDataEh+0x2e>
     b30:	2f 77       	andi	r18, 0x7F	; 127
     b32:	28 2b       	or	r18, r24
     b34:	2b b9       	out	0x0b, r18	; 11
     b36:	5c 9a       	sbi	0x0b, 4	; 11
     b38:	81 e0       	ldi	r24, 0x01	; 1
     b3a:	90 e0       	ldi	r25, 0x00	; 0
     b3c:	fc 01       	movw	r30, r24
     b3e:	6f 93       	push	r22
     b40:	64 e0       	ldi	r22, 0x04	; 4
     b42:	6a 95       	dec	r22
     b44:	f1 f7       	brne	.-4      	; 0xb42 <_ZN12OrangutanLCD8sendDataEh+0x48>
     b46:	6f 91       	pop	r22
     b48:	31 97       	sbiw	r30, 0x01	; 1
     b4a:	c9 f7       	brne	.-14     	; 0xb3e <_ZN12OrangutanLCD8sendDataEh+0x44>
     b4c:	5c 98       	cbi	0x0b, 4	; 11
     b4e:	6f 93       	push	r22
     b50:	64 e0       	ldi	r22, 0x04	; 4
     b52:	6a 95       	dec	r22
     b54:	f1 f7       	brne	.-4      	; 0xb52 <_ZN12OrangutanLCD8sendDataEh+0x58>
     b56:	6f 91       	pop	r22
     b58:	01 97       	sbiw	r24, 0x01	; 1
     b5a:	c9 f7       	brne	.-14     	; 0xb4e <_ZN12OrangutanLCD8sendDataEh+0x54>
     b5c:	08 95       	ret

00000b5e <_ZN12OrangutanLCD10initPrintfEv>:
     b5e:	80 91 21 01 	lds	r24, 0x0121
     b62:	90 91 22 01 	lds	r25, 0x0122
     b66:	00 97       	sbiw	r24, 0x00	; 0
     b68:	11 f0       	breq	.+4      	; 0xb6e <_ZN12OrangutanLCD10initPrintfEv+0x10>
     b6a:	0e 94 f4 16 	call	0x2de8	; 0x2de8 <free>
     b6e:	80 91 11 01 	lds	r24, 0x0111
     b72:	90 e0       	ldi	r25, 0x00	; 0
     b74:	01 97       	sbiw	r24, 0x01	; 1
     b76:	20 91 12 01 	lds	r18, 0x0112
     b7a:	30 e0       	ldi	r19, 0x00	; 0
     b7c:	ac 01       	movw	r20, r24
     b7e:	42 9f       	mul	r20, r18
     b80:	c0 01       	movw	r24, r0
     b82:	43 9f       	mul	r20, r19
     b84:	90 0d       	add	r25, r0
     b86:	52 9f       	mul	r21, r18
     b88:	90 0d       	add	r25, r0
     b8a:	11 24       	eor	r1, r1
     b8c:	0e 94 47 16 	call	0x2c8e	; 0x2c8e <malloc>
     b90:	90 93 22 01 	sts	0x0122, r25
     b94:	80 93 21 01 	sts	0x0121, r24
     b98:	00 97       	sbiw	r24, 0x00	; 0
     b9a:	29 f1       	breq	.+74     	; 0xbe6 <_ZN12OrangutanLCD10initPrintfEv+0x88>
     b9c:	60 e0       	ldi	r22, 0x00	; 0
     b9e:	70 e2       	ldi	r23, 0x20	; 32
     ba0:	08 c0       	rjmp	.+16     	; 0xbb2 <_ZN12OrangutanLCD10initPrintfEv+0x54>
     ba2:	e0 91 21 01 	lds	r30, 0x0121
     ba6:	f0 91 22 01 	lds	r31, 0x0122
     baa:	e4 0f       	add	r30, r20
     bac:	f5 1f       	adc	r31, r21
     bae:	70 83       	st	Z, r23
     bb0:	6f 5f       	subi	r22, 0xFF	; 255
     bb2:	46 2f       	mov	r20, r22
     bb4:	50 e0       	ldi	r21, 0x00	; 0
     bb6:	80 91 11 01 	lds	r24, 0x0111
     bba:	90 e0       	ldi	r25, 0x00	; 0
     bbc:	01 97       	sbiw	r24, 0x01	; 1
     bbe:	20 91 12 01 	lds	r18, 0x0112
     bc2:	30 e0       	ldi	r19, 0x00	; 0
     bc4:	fc 01       	movw	r30, r24
     bc6:	e2 9f       	mul	r30, r18
     bc8:	c0 01       	movw	r24, r0
     bca:	e3 9f       	mul	r30, r19
     bcc:	90 0d       	add	r25, r0
     bce:	f2 9f       	mul	r31, r18
     bd0:	90 0d       	add	r25, r0
     bd2:	11 24       	eor	r1, r1
     bd4:	48 17       	cp	r20, r24
     bd6:	59 07       	cpc	r21, r25
     bd8:	24 f3       	brlt	.-56     	; 0xba2 <_ZN12OrangutanLCD10initPrintfEv+0x44>
     bda:	82 ef       	ldi	r24, 0xF2	; 242
     bdc:	97 e0       	ldi	r25, 0x07	; 7
     bde:	6e e2       	ldi	r22, 0x2E	; 46
     be0:	75 e0       	ldi	r23, 0x05	; 5
     be2:	0e 94 4c 17 	call	0x2e98	; 0x2e98 <fdevopen>
     be6:	08 95       	ret

00000be8 <_ZN12OrangutanLCD10initPrintfEhh>:
     be8:	80 93 12 01 	sts	0x0112, r24
     bec:	60 93 11 01 	sts	0x0111, r22
     bf0:	0e 94 af 05 	call	0xb5e	; 0xb5e <_ZN12OrangutanLCD10initPrintfEv>
     bf4:	08 95       	ret

00000bf6 <lcd_init_printf_with_dimensions>:
     bf6:	80 93 12 01 	sts	0x0112, r24
     bfa:	60 93 11 01 	sts	0x0111, r22
     bfe:	0e 94 af 05 	call	0xb5e	; 0xb5e <_ZN12OrangutanLCD10initPrintfEv>
     c02:	08 95       	ret

00000c04 <lcd_init_printf>:
     c04:	0e 94 af 05 	call	0xb5e	; 0xb5e <_ZN12OrangutanLCD10initPrintfEv>
     c08:	08 95       	ret

00000c0a <_ZN12OrangutanLCD5init2Ev>:
     c0a:	80 e1       	ldi	r24, 0x10	; 16
     c0c:	97 e2       	ldi	r25, 0x27	; 39
     c0e:	a0 e0       	ldi	r26, 0x00	; 0
     c10:	b0 e0       	ldi	r27, 0x00	; 0
     c12:	80 93 25 01 	sts	0x0125, r24
     c16:	90 93 26 01 	sts	0x0126, r25
     c1a:	a0 93 27 01 	sts	0x0127, r26
     c1e:	b0 93 28 01 	sts	0x0128, r27
     c22:	52 9a       	sbi	0x0a, 2	; 10
     c24:	20 9a       	sbi	0x04, 0	; 4
     c26:	54 9a       	sbi	0x0a, 4	; 10
     c28:	8e e1       	ldi	r24, 0x1E	; 30
     c2a:	90 e0       	ldi	r25, 0x00	; 0
     c2c:	0e 94 41 0d 	call	0x1a82	; 0x1a82 <_ZN13OrangutanTime17delayMillisecondsEj>
     c30:	83 e0       	ldi	r24, 0x03	; 3
     c32:	0e 94 38 09 	call	0x1270	; 0x1270 <_ZN12OrangutanLCD13send_4bit_cmdEh>
     c36:	86 e0       	ldi	r24, 0x06	; 6
     c38:	90 e0       	ldi	r25, 0x00	; 0
     c3a:	0e 94 41 0d 	call	0x1a82	; 0x1a82 <_ZN13OrangutanTime17delayMillisecondsEj>
     c3e:	83 e0       	ldi	r24, 0x03	; 3
     c40:	0e 94 38 09 	call	0x1270	; 0x1270 <_ZN12OrangutanLCD13send_4bit_cmdEh>
     c44:	82 e0       	ldi	r24, 0x02	; 2
     c46:	90 e0       	ldi	r25, 0x00	; 0
     c48:	0e 94 41 0d 	call	0x1a82	; 0x1a82 <_ZN13OrangutanTime17delayMillisecondsEj>
     c4c:	83 e0       	ldi	r24, 0x03	; 3
     c4e:	0e 94 38 09 	call	0x1270	; 0x1270 <_ZN12OrangutanLCD13send_4bit_cmdEh>
     c52:	82 e0       	ldi	r24, 0x02	; 2
     c54:	90 e0       	ldi	r25, 0x00	; 0
     c56:	0e 94 41 0d 	call	0x1a82	; 0x1a82 <_ZN13OrangutanTime17delayMillisecondsEj>
     c5a:	82 e0       	ldi	r24, 0x02	; 2
     c5c:	0e 94 38 09 	call	0x1270	; 0x1270 <_ZN12OrangutanLCD13send_4bit_cmdEh>
     c60:	82 e0       	ldi	r24, 0x02	; 2
     c62:	90 e0       	ldi	r25, 0x00	; 0
     c64:	0e 94 41 0d 	call	0x1a82	; 0x1a82 <_ZN13OrangutanTime17delayMillisecondsEj>
     c68:	88 e2       	ldi	r24, 0x28	; 40
     c6a:	0e 94 82 06 	call	0xd04	; 0xd04 <_ZN12OrangutanLCD8send_cmdEh>
     c6e:	88 e0       	ldi	r24, 0x08	; 8
     c70:	0e 94 82 06 	call	0xd04	; 0xd04 <_ZN12OrangutanLCD8send_cmdEh>
     c74:	81 e0       	ldi	r24, 0x01	; 1
     c76:	0e 94 82 06 	call	0xd04	; 0xd04 <_ZN12OrangutanLCD8send_cmdEh>
     c7a:	86 e0       	ldi	r24, 0x06	; 6
     c7c:	0e 94 82 06 	call	0xd04	; 0xd04 <_ZN12OrangutanLCD8send_cmdEh>
     c80:	8c e0       	ldi	r24, 0x0C	; 12
     c82:	0e 94 82 06 	call	0xd04	; 0xd04 <_ZN12OrangutanLCD8send_cmdEh>
     c86:	08 95       	ret

00000c88 <_ZN12OrangutanLCD4initEv>:
     c88:	80 91 29 01 	lds	r24, 0x0129
     c8c:	88 23       	and	r24, r24
     c8e:	29 f4       	brne	.+10     	; 0xc9a <_ZN12OrangutanLCD4initEv+0x12>
     c90:	81 e0       	ldi	r24, 0x01	; 1
     c92:	80 93 29 01 	sts	0x0129, r24
     c96:	0e 94 05 06 	call	0xc0a	; 0xc0a <_ZN12OrangutanLCD5init2Ev>
     c9a:	08 95       	ret

00000c9c <_ZN12OrangutanLCD4sendEhhh>:
     c9c:	bf 92       	push	r11
     c9e:	cf 92       	push	r12
     ca0:	df 92       	push	r13
     ca2:	ef 92       	push	r14
     ca4:	ff 92       	push	r15
     ca6:	0f 93       	push	r16
     ca8:	1f 93       	push	r17
     caa:	08 2f       	mov	r16, r24
     cac:	16 2f       	mov	r17, r22
     cae:	f4 2e       	mov	r15, r20
     cb0:	0e 94 44 06 	call	0xc88	; 0xc88 <_ZN12OrangutanLCD4initEv>
     cb4:	0e 94 31 05 	call	0xa62	; 0xa62 <_ZN12OrangutanLCD8busyWaitEv>
     cb8:	b4 b0       	in	r11, 0x04	; 4
     cba:	c5 b0       	in	r12, 0x05	; 5
     cbc:	da b0       	in	r13, 0x0a	; 10
     cbe:	eb b0       	in	r14, 0x0b	; 11
     cc0:	28 98       	cbi	0x05, 0	; 5
     cc2:	11 23       	and	r17, r17
     cc4:	11 f0       	breq	.+4      	; 0xcca <_ZN12OrangutanLCD4sendEhhh+0x2e>
     cc6:	5a 9a       	sbi	0x0b, 2	; 11
     cc8:	01 c0       	rjmp	.+2      	; 0xccc <_ZN12OrangutanLCD4sendEhhh+0x30>
     cca:	5a 98       	cbi	0x0b, 2	; 11
     ccc:	84 b1       	in	r24, 0x04	; 4
     cce:	82 63       	ori	r24, 0x32	; 50
     cd0:	84 b9       	out	0x04, r24	; 4
     cd2:	57 9a       	sbi	0x0a, 7	; 10
     cd4:	81 e0       	ldi	r24, 0x01	; 1
     cd6:	f8 16       	cp	r15, r24
     cd8:	29 f0       	breq	.+10     	; 0xce4 <_ZN12OrangutanLCD4sendEhhh+0x48>
     cda:	80 2f       	mov	r24, r16
     cdc:	82 95       	swap	r24
     cde:	8f 70       	andi	r24, 0x0F	; 15
     ce0:	0e 94 7d 05 	call	0xafa	; 0xafa <_ZN12OrangutanLCD8sendDataEh>
     ce4:	80 2f       	mov	r24, r16
     ce6:	8f 70       	andi	r24, 0x0F	; 15
     ce8:	0e 94 7d 05 	call	0xafa	; 0xafa <_ZN12OrangutanLCD8sendDataEh>
     cec:	da b8       	out	0x0a, r13	; 10
     cee:	eb b8       	out	0x0b, r14	; 11
     cf0:	b4 b8       	out	0x04, r11	; 4
     cf2:	c5 b8       	out	0x05, r12	; 5
     cf4:	1f 91       	pop	r17
     cf6:	0f 91       	pop	r16
     cf8:	ff 90       	pop	r15
     cfa:	ef 90       	pop	r14
     cfc:	df 90       	pop	r13
     cfe:	cf 90       	pop	r12
     d00:	bf 90       	pop	r11
     d02:	08 95       	ret

00000d04 <_ZN12OrangutanLCD8send_cmdEh>:
     d04:	60 e0       	ldi	r22, 0x00	; 0
     d06:	42 e0       	ldi	r20, 0x02	; 2
     d08:	0e 94 4e 06 	call	0xc9c	; 0xc9c <_ZN12OrangutanLCD4sendEhhh>
     d0c:	08 95       	ret

00000d0e <_ZN12OrangutanLCD10moveCursorEhh>:
     d0e:	0f 93       	push	r16
     d10:	1f 93       	push	r17
     d12:	08 2f       	mov	r16, r24
     d14:	16 2f       	mov	r17, r22
     d16:	08 c0       	rjmp	.+16     	; 0xd28 <_ZN12OrangutanLCD10moveCursorEhh+0x1a>
     d18:	00 23       	and	r16, r16
     d1a:	11 f4       	brne	.+4      	; 0xd20 <_ZN12OrangutanLCD10moveCursorEhh+0x12>
     d1c:	80 e1       	ldi	r24, 0x10	; 16
     d1e:	01 c0       	rjmp	.+2      	; 0xd22 <_ZN12OrangutanLCD10moveCursorEhh+0x14>
     d20:	84 e1       	ldi	r24, 0x14	; 20
     d22:	0e 94 82 06 	call	0xd04	; 0xd04 <_ZN12OrangutanLCD8send_cmdEh>
     d26:	11 50       	subi	r17, 0x01	; 1
     d28:	11 23       	and	r17, r17
     d2a:	b1 f7       	brne	.-20     	; 0xd18 <_ZN12OrangutanLCD10moveCursorEhh+0xa>
     d2c:	1f 91       	pop	r17
     d2e:	0f 91       	pop	r16
     d30:	08 95       	ret

00000d32 <lcd_move_cursor>:
     d32:	0e 94 87 06 	call	0xd0e	; 0xd0e <_ZN12OrangutanLCD10moveCursorEhh>
     d36:	08 95       	ret

00000d38 <_ZN12OrangutanLCD10hideCursorEv>:
     d38:	8c e0       	ldi	r24, 0x0C	; 12
     d3a:	0e 94 82 06 	call	0xd04	; 0xd04 <_ZN12OrangutanLCD8send_cmdEh>
     d3e:	08 95       	ret

00000d40 <lcd_hide_cursor>:
     d40:	0e 94 9c 06 	call	0xd38	; 0xd38 <_ZN12OrangutanLCD10hideCursorEv>
     d44:	08 95       	ret

00000d46 <_ZN12OrangutanLCD10showCursorEh>:
     d46:	81 30       	cpi	r24, 0x01	; 1
     d48:	11 f4       	brne	.+4      	; 0xd4e <_ZN12OrangutanLCD10showCursorEh+0x8>
     d4a:	8f e0       	ldi	r24, 0x0F	; 15
     d4c:	01 c0       	rjmp	.+2      	; 0xd50 <_ZN12OrangutanLCD10showCursorEh+0xa>
     d4e:	8e e0       	ldi	r24, 0x0E	; 14
     d50:	0e 94 82 06 	call	0xd04	; 0xd04 <_ZN12OrangutanLCD8send_cmdEh>
     d54:	08 95       	ret

00000d56 <lcd_show_cursor>:
     d56:	0e 94 a3 06 	call	0xd46	; 0xd46 <_ZN12OrangutanLCD10showCursorEh>
     d5a:	08 95       	ret

00000d5c <_ZN12OrangutanLCD6gotoXYEhh>:
     d5c:	a4 e0       	ldi	r26, 0x04	; 4
     d5e:	b0 e0       	ldi	r27, 0x00	; 0
     d60:	e4 eb       	ldi	r30, 0xB4	; 180
     d62:	f6 e0       	ldi	r31, 0x06	; 6
     d64:	0c 94 18 16 	jmp	0x2c30	; 0x2c30 <__prologue_saves__+0x1c>
     d68:	18 2f       	mov	r17, r24
     d6a:	06 2f       	mov	r16, r22
     d6c:	80 e8       	ldi	r24, 0x80	; 128
     d6e:	89 83       	std	Y+1, r24	; 0x01
     d70:	80 ec       	ldi	r24, 0xC0	; 192
     d72:	8a 83       	std	Y+2, r24	; 0x02
     d74:	84 e9       	ldi	r24, 0x94	; 148
     d76:	8b 83       	std	Y+3, r24	; 0x03
     d78:	84 ed       	ldi	r24, 0xD4	; 212
     d7a:	8c 83       	std	Y+4, r24	; 0x04
     d7c:	fe 01       	movw	r30, r28
     d7e:	e6 0f       	add	r30, r22
     d80:	f1 1d       	adc	r31, r1
     d82:	81 81       	ldd	r24, Z+1	; 0x01
     d84:	81 0f       	add	r24, r17
     d86:	0e 94 82 06 	call	0xd04	; 0xd04 <_ZN12OrangutanLCD8send_cmdEh>
     d8a:	10 93 24 01 	sts	0x0124, r17
     d8e:	00 93 23 01 	sts	0x0123, r16
     d92:	24 96       	adiw	r28, 0x04	; 4
     d94:	e4 e0       	ldi	r30, 0x04	; 4
     d96:	0c 94 34 16 	jmp	0x2c68	; 0x2c68 <__epilogue_restores__+0x1c>

00000d9a <lcd_goto_xy>:
     d9a:	0e 94 ae 06 	call	0xd5c	; 0xd5c <_ZN12OrangutanLCD6gotoXYEhh>
     d9e:	08 95       	ret

00000da0 <_ZN12OrangutanLCD5clearEv>:
     da0:	81 e0       	ldi	r24, 0x01	; 1
     da2:	0e 94 82 06 	call	0xd04	; 0xd04 <_ZN12OrangutanLCD8send_cmdEh>
     da6:	80 91 21 01 	lds	r24, 0x0121
     daa:	90 91 22 01 	lds	r25, 0x0122
     dae:	89 2b       	or	r24, r25
     db0:	19 f1       	breq	.+70     	; 0xdf8 <_ZN12OrangutanLCD5clearEv+0x58>
     db2:	60 e0       	ldi	r22, 0x00	; 0
     db4:	70 e2       	ldi	r23, 0x20	; 32
     db6:	08 c0       	rjmp	.+16     	; 0xdc8 <_ZN12OrangutanLCD5clearEv+0x28>
     db8:	e0 91 21 01 	lds	r30, 0x0121
     dbc:	f0 91 22 01 	lds	r31, 0x0122
     dc0:	e4 0f       	add	r30, r20
     dc2:	f5 1f       	adc	r31, r21
     dc4:	70 83       	st	Z, r23
     dc6:	6f 5f       	subi	r22, 0xFF	; 255
     dc8:	46 2f       	mov	r20, r22
     dca:	50 e0       	ldi	r21, 0x00	; 0
     dcc:	80 91 11 01 	lds	r24, 0x0111
     dd0:	90 e0       	ldi	r25, 0x00	; 0
     dd2:	01 97       	sbiw	r24, 0x01	; 1
     dd4:	20 91 12 01 	lds	r18, 0x0112
     dd8:	30 e0       	ldi	r19, 0x00	; 0
     dda:	fc 01       	movw	r30, r24
     ddc:	e2 9f       	mul	r30, r18
     dde:	c0 01       	movw	r24, r0
     de0:	e3 9f       	mul	r30, r19
     de2:	90 0d       	add	r25, r0
     de4:	f2 9f       	mul	r31, r18
     de6:	90 0d       	add	r25, r0
     de8:	11 24       	eor	r1, r1
     dea:	48 17       	cp	r20, r24
     dec:	59 07       	cpc	r21, r25
     dee:	24 f3       	brlt	.-56     	; 0xdb8 <_ZN12OrangutanLCD5clearEv+0x18>
     df0:	10 92 24 01 	sts	0x0124, r1
     df4:	10 92 23 01 	sts	0x0123, r1
     df8:	08 95       	ret

00000dfa <clear>:
     dfa:	0e 94 d0 06 	call	0xda0	; 0xda0 <_ZN12OrangutanLCD5clearEv>
     dfe:	08 95       	ret

00000e00 <_ZN12OrangutanLCD9send_dataEh>:
     e00:	61 e0       	ldi	r22, 0x01	; 1
     e02:	42 e0       	ldi	r20, 0x02	; 2
     e04:	0e 94 4e 06 	call	0xc9c	; 0xc9c <_ZN12OrangutanLCD4sendEhhh>
     e08:	08 95       	ret

00000e0a <_ZN12OrangutanLCD11printBinaryEh>:
     e0a:	0f 93       	push	r16
     e0c:	1f 93       	push	r17
     e0e:	cf 93       	push	r28
     e10:	df 93       	push	r29
     e12:	00 e0       	ldi	r16, 0x00	; 0
     e14:	10 e8       	ldi	r17, 0x80	; 128
     e16:	c8 2f       	mov	r28, r24
     e18:	d0 e0       	ldi	r29, 0x00	; 0
     e1a:	81 2f       	mov	r24, r17
     e1c:	90 e0       	ldi	r25, 0x00	; 0
     e1e:	8c 23       	and	r24, r28
     e20:	9d 23       	and	r25, r29
     e22:	89 2b       	or	r24, r25
     e24:	11 f0       	breq	.+4      	; 0xe2a <_ZN12OrangutanLCD11printBinaryEh+0x20>
     e26:	81 e3       	ldi	r24, 0x31	; 49
     e28:	01 c0       	rjmp	.+2      	; 0xe2c <_ZN12OrangutanLCD11printBinaryEh+0x22>
     e2a:	80 e3       	ldi	r24, 0x30	; 48
     e2c:	0e 94 00 07 	call	0xe00	; 0xe00 <_ZN12OrangutanLCD9send_dataEh>
     e30:	0f 5f       	subi	r16, 0xFF	; 255
     e32:	08 30       	cpi	r16, 0x08	; 8
     e34:	11 f0       	breq	.+4      	; 0xe3a <_ZN12OrangutanLCD11printBinaryEh+0x30>
     e36:	16 95       	lsr	r17
     e38:	f0 cf       	rjmp	.-32     	; 0xe1a <_ZN12OrangutanLCD11printBinaryEh+0x10>
     e3a:	df 91       	pop	r29
     e3c:	cf 91       	pop	r28
     e3e:	1f 91       	pop	r17
     e40:	0f 91       	pop	r16
     e42:	08 95       	ret

00000e44 <print_binary>:
     e44:	0e 94 05 07 	call	0xe0a	; 0xe0a <_ZN12OrangutanLCD11printBinaryEh>
     e48:	08 95       	ret

00000e4a <_ZN12OrangutanLCD14printHexNibbleEh>:
     e4a:	8a 30       	cpi	r24, 0x0A	; 10
     e4c:	10 f4       	brcc	.+4      	; 0xe52 <_ZN12OrangutanLCD14printHexNibbleEh+0x8>
     e4e:	80 5d       	subi	r24, 0xD0	; 208
     e50:	01 c0       	rjmp	.+2      	; 0xe54 <_ZN12OrangutanLCD14printHexNibbleEh+0xa>
     e52:	89 5c       	subi	r24, 0xC9	; 201
     e54:	0e 94 00 07 	call	0xe00	; 0xe00 <_ZN12OrangutanLCD9send_dataEh>
     e58:	08 95       	ret

00000e5a <_ZN12OrangutanLCD8printHexEh>:
     e5a:	1f 93       	push	r17
     e5c:	18 2f       	mov	r17, r24
     e5e:	82 95       	swap	r24
     e60:	8f 70       	andi	r24, 0x0F	; 15
     e62:	0e 94 25 07 	call	0xe4a	; 0xe4a <_ZN12OrangutanLCD14printHexNibbleEh>
     e66:	81 2f       	mov	r24, r17
     e68:	8f 70       	andi	r24, 0x0F	; 15
     e6a:	0e 94 25 07 	call	0xe4a	; 0xe4a <_ZN12OrangutanLCD14printHexNibbleEh>
     e6e:	1f 91       	pop	r17
     e70:	08 95       	ret

00000e72 <_ZN12OrangutanLCD8printHexEj>:
     e72:	1f 93       	push	r17
     e74:	18 2f       	mov	r17, r24
     e76:	89 2f       	mov	r24, r25
     e78:	0e 94 2d 07 	call	0xe5a	; 0xe5a <_ZN12OrangutanLCD8printHexEh>
     e7c:	81 2f       	mov	r24, r17
     e7e:	0e 94 2d 07 	call	0xe5a	; 0xe5a <_ZN12OrangutanLCD8printHexEh>
     e82:	1f 91       	pop	r17
     e84:	08 95       	ret

00000e86 <print_hex>:
     e86:	0e 94 39 07 	call	0xe72	; 0xe72 <_ZN12OrangutanLCD8printHexEj>
     e8a:	08 95       	ret

00000e8c <print_hex_byte>:
     e8c:	0e 94 2d 07 	call	0xe5a	; 0xe5a <_ZN12OrangutanLCD8printHexEh>
     e90:	08 95       	ret

00000e92 <_ZN12OrangutanLCD5printEm>:
     e92:	6f 92       	push	r6
     e94:	7f 92       	push	r7
     e96:	8f 92       	push	r8
     e98:	9f 92       	push	r9
     e9a:	af 92       	push	r10
     e9c:	bf 92       	push	r11
     e9e:	cf 92       	push	r12
     ea0:	df 92       	push	r13
     ea2:	ff 92       	push	r15
     ea4:	0f 93       	push	r16
     ea6:	df 93       	push	r29
     ea8:	cf 93       	push	r28
     eaa:	cd b7       	in	r28, 0x3d	; 61
     eac:	de b7       	in	r29, 0x3e	; 62
     eae:	2a 97       	sbiw	r28, 0x0a	; 10
     eb0:	0f b6       	in	r0, 0x3f	; 63
     eb2:	f8 94       	cli
     eb4:	de bf       	out	0x3e, r29	; 62
     eb6:	0f be       	out	0x3f, r0	; 63
     eb8:	cd bf       	out	0x3d, r28	; 61
     eba:	5b 01       	movw	r10, r22
     ebc:	6c 01       	movw	r12, r24
     ebe:	0a e0       	ldi	r16, 0x0A	; 10
     ec0:	3e 01       	movw	r6, r28
     ec2:	08 94       	sec
     ec4:	61 1c       	adc	r6, r1
     ec6:	71 1c       	adc	r7, r1
     ec8:	fa 2c       	mov	r15, r10
     eca:	c6 01       	movw	r24, r12
     ecc:	b5 01       	movw	r22, r10
     ece:	2a e0       	ldi	r18, 0x0A	; 10
     ed0:	30 e0       	ldi	r19, 0x00	; 0
     ed2:	40 e0       	ldi	r20, 0x00	; 0
     ed4:	50 e0       	ldi	r21, 0x00	; 0
     ed6:	0e 94 cd 15 	call	0x2b9a	; 0x2b9a <__udivmodsi4>
     eda:	c9 01       	movw	r24, r18
     edc:	da 01       	movw	r26, r20
     ede:	5c 01       	movw	r10, r24
     ee0:	6d 01       	movw	r12, r26
     ee2:	01 50       	subi	r16, 0x01	; 1
     ee4:	43 01       	movw	r8, r6
     ee6:	80 0e       	add	r8, r16
     ee8:	91 1c       	adc	r9, r1
     eea:	80 e3       	ldi	r24, 0x30	; 48
     eec:	f8 0e       	add	r15, r24
     eee:	c6 01       	movw	r24, r12
     ef0:	b5 01       	movw	r22, r10
     ef2:	2a e0       	ldi	r18, 0x0A	; 10
     ef4:	30 e0       	ldi	r19, 0x00	; 0
     ef6:	40 e0       	ldi	r20, 0x00	; 0
     ef8:	50 e0       	ldi	r21, 0x00	; 0
     efa:	0e 94 87 15 	call	0x2b0e	; 0x2b0e <__mulsi3>
     efe:	f6 1a       	sub	r15, r22
     f00:	f4 01       	movw	r30, r8
     f02:	f0 82       	st	Z, r15
     f04:	a1 14       	cp	r10, r1
     f06:	b1 04       	cpc	r11, r1
     f08:	c1 04       	cpc	r12, r1
     f0a:	d1 04       	cpc	r13, r1
     f0c:	e9 f6       	brne	.-70     	; 0xec8 <_ZN12OrangutanLCD5printEm+0x36>
     f0e:	08 c0       	rjmp	.+16     	; 0xf20 <_ZN12OrangutanLCD5printEm+0x8e>
     f10:	f6 01       	movw	r30, r12
     f12:	e0 0f       	add	r30, r16
     f14:	f1 1d       	adc	r31, r1
     f16:	80 81       	ld	r24, Z
     f18:	0e 94 00 07 	call	0xe00	; 0xe00 <_ZN12OrangutanLCD9send_dataEh>
     f1c:	0f 5f       	subi	r16, 0xFF	; 255
     f1e:	04 c0       	rjmp	.+8      	; 0xf28 <_ZN12OrangutanLCD5printEm+0x96>
     f20:	6e 01       	movw	r12, r28
     f22:	08 94       	sec
     f24:	c1 1c       	adc	r12, r1
     f26:	d1 1c       	adc	r13, r1
     f28:	0a 30       	cpi	r16, 0x0A	; 10
     f2a:	90 f3       	brcs	.-28     	; 0xf10 <_ZN12OrangutanLCD5printEm+0x7e>
     f2c:	2a 96       	adiw	r28, 0x0a	; 10
     f2e:	0f b6       	in	r0, 0x3f	; 63
     f30:	f8 94       	cli
     f32:	de bf       	out	0x3e, r29	; 62
     f34:	0f be       	out	0x3f, r0	; 63
     f36:	cd bf       	out	0x3d, r28	; 61
     f38:	cf 91       	pop	r28
     f3a:	df 91       	pop	r29
     f3c:	0f 91       	pop	r16
     f3e:	ff 90       	pop	r15
     f40:	df 90       	pop	r13
     f42:	cf 90       	pop	r12
     f44:	bf 90       	pop	r11
     f46:	af 90       	pop	r10
     f48:	9f 90       	pop	r9
     f4a:	8f 90       	pop	r8
     f4c:	7f 90       	pop	r7
     f4e:	6f 90       	pop	r6
     f50:	08 95       	ret

00000f52 <print_unsigned_long>:
     f52:	0e 94 49 07 	call	0xe92	; 0xe92 <_ZN12OrangutanLCD5printEm>
     f56:	08 95       	ret

00000f58 <_ZN12OrangutanLCD5printEl>:
     f58:	ef 92       	push	r14
     f5a:	ff 92       	push	r15
     f5c:	0f 93       	push	r16
     f5e:	1f 93       	push	r17
     f60:	7b 01       	movw	r14, r22
     f62:	8c 01       	movw	r16, r24
     f64:	97 ff       	sbrs	r25, 7
     f66:	0b c0       	rjmp	.+22     	; 0xf7e <_ZN12OrangutanLCD5printEl+0x26>
     f68:	10 95       	com	r17
     f6a:	00 95       	com	r16
     f6c:	f0 94       	com	r15
     f6e:	e0 94       	com	r14
     f70:	e1 1c       	adc	r14, r1
     f72:	f1 1c       	adc	r15, r1
     f74:	01 1d       	adc	r16, r1
     f76:	11 1d       	adc	r17, r1
     f78:	8d e2       	ldi	r24, 0x2D	; 45
     f7a:	0e 94 00 07 	call	0xe00	; 0xe00 <_ZN12OrangutanLCD9send_dataEh>
     f7e:	c8 01       	movw	r24, r16
     f80:	b7 01       	movw	r22, r14
     f82:	0e 94 49 07 	call	0xe92	; 0xe92 <_ZN12OrangutanLCD5printEm>
     f86:	1f 91       	pop	r17
     f88:	0f 91       	pop	r16
     f8a:	ff 90       	pop	r15
     f8c:	ef 90       	pop	r14
     f8e:	08 95       	ret

00000f90 <print_long>:
     f90:	0e 94 ac 07 	call	0xf58	; 0xf58 <_ZN12OrangutanLCD5printEl>
     f94:	08 95       	ret

00000f96 <_ZN12OrangutanLCD21printFromProgramSpaceEPKc>:
     f96:	cf 93       	push	r28
     f98:	df 93       	push	r29
     f9a:	ec 01       	movw	r28, r24
     f9c:	03 c0       	rjmp	.+6      	; 0xfa4 <_ZN12OrangutanLCD21printFromProgramSpaceEPKc+0xe>
     f9e:	0e 94 00 07 	call	0xe00	; 0xe00 <_ZN12OrangutanLCD9send_dataEh>
     fa2:	21 96       	adiw	r28, 0x01	; 1
     fa4:	fe 01       	movw	r30, r28
     fa6:	84 91       	lpm	r24, Z+
     fa8:	88 23       	and	r24, r24
     faa:	c9 f7       	brne	.-14     	; 0xf9e <_ZN12OrangutanLCD21printFromProgramSpaceEPKc+0x8>
     fac:	df 91       	pop	r29
     fae:	cf 91       	pop	r28
     fb0:	08 95       	ret

00000fb2 <print_from_program_space>:
     fb2:	0e 94 cb 07 	call	0xf96	; 0xf96 <_ZN12OrangutanLCD21printFromProgramSpaceEPKc>
     fb6:	08 95       	ret

00000fb8 <_ZN12OrangutanLCD5printEPKc>:
     fb8:	cf 93       	push	r28
     fba:	df 93       	push	r29
     fbc:	ec 01       	movw	r28, r24
     fbe:	03 c0       	rjmp	.+6      	; 0xfc6 <_ZN12OrangutanLCD5printEPKc+0xe>
     fc0:	21 96       	adiw	r28, 0x01	; 1
     fc2:	0e 94 00 07 	call	0xe00	; 0xe00 <_ZN12OrangutanLCD9send_dataEh>
     fc6:	88 81       	ld	r24, Y
     fc8:	88 23       	and	r24, r24
     fca:	d1 f7       	brne	.-12     	; 0xfc0 <_ZN12OrangutanLCD5printEPKc+0x8>
     fcc:	df 91       	pop	r29
     fce:	cf 91       	pop	r28
     fd0:	08 95       	ret

00000fd2 <print>:
     fd2:	0e 94 dc 07 	call	0xfb8	; 0xfb8 <_ZN12OrangutanLCD5printEPKc>
     fd6:	08 95       	ret

00000fd8 <_ZN12OrangutanLCD5printEc>:
     fd8:	0e 94 00 07 	call	0xe00	; 0xe00 <_ZN12OrangutanLCD9send_dataEh>
     fdc:	08 95       	ret

00000fde <print_character>:
     fde:	0e 94 00 07 	call	0xe00	; 0xe00 <_ZN12OrangutanLCD9send_dataEh>
     fe2:	08 95       	ret

00000fe4 <lcd_putchar>:
     fe4:	a0 e0       	ldi	r26, 0x00	; 0
     fe6:	b0 e0       	ldi	r27, 0x00	; 0
     fe8:	e8 ef       	ldi	r30, 0xF8	; 248
     fea:	f7 e0       	ldi	r31, 0x07	; 7
     fec:	0c 94 14 16 	jmp	0x2c28	; 0x2c28 <__prologue_saves__+0x14>
     ff0:	e8 2e       	mov	r14, r24
     ff2:	80 91 21 01 	lds	r24, 0x0121
     ff6:	90 91 22 01 	lds	r25, 0x0122
     ffa:	89 2b       	or	r24, r25
     ffc:	09 f4       	brne	.+2      	; 0x1000 <lcd_putchar+0x1c>
     ffe:	05 c1       	rjmp	.+522    	; 0x120a <lcd_putchar+0x226>
    1000:	2a e0       	ldi	r18, 0x0A	; 10
    1002:	e2 16       	cp	r14, r18
    1004:	09 f4       	brne	.+2      	; 0x1008 <lcd_putchar+0x24>
    1006:	46 c0       	rjmp	.+140    	; 0x1094 <lcd_putchar+0xb0>
    1008:	38 e0       	ldi	r19, 0x08	; 8
    100a:	e3 16       	cp	r14, r19
    100c:	c9 f4       	brne	.+50     	; 0x1040 <lcd_putchar+0x5c>
    100e:	80 91 24 01 	lds	r24, 0x0124
    1012:	81 50       	subi	r24, 0x01	; 1
    1014:	80 93 24 01 	sts	0x0124, r24
    1018:	8f 3f       	cpi	r24, 0xFF	; 255
    101a:	51 f4       	brne	.+20     	; 0x1030 <lcd_putchar+0x4c>
    101c:	80 91 23 01 	lds	r24, 0x0123
    1020:	81 50       	subi	r24, 0x01	; 1
    1022:	80 93 23 01 	sts	0x0123, r24
    1026:	80 91 12 01 	lds	r24, 0x0112
    102a:	81 50       	subi	r24, 0x01	; 1
    102c:	80 93 24 01 	sts	0x0124, r24
    1030:	80 91 23 01 	lds	r24, 0x0123
    1034:	8f 3f       	cpi	r24, 0xFF	; 255
    1036:	09 f0       	breq	.+2      	; 0x103a <lcd_putchar+0x56>
    1038:	e2 c0       	rjmp	.+452    	; 0x11fe <lcd_putchar+0x21a>
    103a:	10 92 23 01 	sts	0x0123, r1
    103e:	dd c0       	rjmp	.+442    	; 0x11fa <lcd_putchar+0x216>
    1040:	8e 2d       	mov	r24, r14
    1042:	0e 94 00 07 	call	0xe00	; 0xe00 <_ZN12OrangutanLCD9send_dataEh>
    1046:	20 91 23 01 	lds	r18, 0x0123
    104a:	22 23       	and	r18, r18
    104c:	c9 f0       	breq	.+50     	; 0x1080 <lcd_putchar+0x9c>
    104e:	30 e0       	ldi	r19, 0x00	; 0
    1050:	21 50       	subi	r18, 0x01	; 1
    1052:	30 40       	sbci	r19, 0x00	; 0
    1054:	80 91 12 01 	lds	r24, 0x0112
    1058:	90 e0       	ldi	r25, 0x00	; 0
    105a:	ac 01       	movw	r20, r24
    105c:	24 9f       	mul	r18, r20
    105e:	c0 01       	movw	r24, r0
    1060:	25 9f       	mul	r18, r21
    1062:	90 0d       	add	r25, r0
    1064:	34 9f       	mul	r19, r20
    1066:	90 0d       	add	r25, r0
    1068:	11 24       	eor	r1, r1
    106a:	20 91 24 01 	lds	r18, 0x0124
    106e:	e0 91 21 01 	lds	r30, 0x0121
    1072:	f0 91 22 01 	lds	r31, 0x0122
    1076:	e8 0f       	add	r30, r24
    1078:	f9 1f       	adc	r31, r25
    107a:	e2 0f       	add	r30, r18
    107c:	f1 1d       	adc	r31, r1
    107e:	e0 82       	st	Z, r14
    1080:	80 91 24 01 	lds	r24, 0x0124
    1084:	8f 5f       	subi	r24, 0xFF	; 255
    1086:	80 93 24 01 	sts	0x0124, r24
    108a:	90 91 12 01 	lds	r25, 0x0112
    108e:	89 17       	cp	r24, r25
    1090:	09 f0       	breq	.+2      	; 0x1094 <lcd_putchar+0xb0>
    1092:	bb c0       	rjmp	.+374    	; 0x120a <lcd_putchar+0x226>
    1094:	40 91 23 01 	lds	r20, 0x0123
    1098:	24 2f       	mov	r18, r20
    109a:	30 e0       	ldi	r19, 0x00	; 0
    109c:	80 91 11 01 	lds	r24, 0x0111
    10a0:	90 e0       	ldi	r25, 0x00	; 0
    10a2:	01 97       	sbiw	r24, 0x01	; 1
    10a4:	28 17       	cp	r18, r24
    10a6:	39 07       	cpc	r19, r25
    10a8:	09 f0       	breq	.+2      	; 0x10ac <lcd_putchar+0xc8>
    10aa:	a4 c0       	rjmp	.+328    	; 0x11f4 <lcd_putchar+0x210>
    10ac:	c0 e0       	ldi	r28, 0x00	; 0
    10ae:	d0 e0       	ldi	r29, 0x00	; 0
    10b0:	44 c0       	rjmp	.+136    	; 0x113a <lcd_putchar+0x156>
    10b2:	80 e0       	ldi	r24, 0x00	; 0
    10b4:	6c 2f       	mov	r22, r28
    10b6:	0e 94 ae 06 	call	0xd5c	; 0xd5c <_ZN12OrangutanLCD6gotoXYEhh>
    10ba:	ff 24       	eor	r15, r15
    10bc:	6e 01       	movw	r12, r28
    10be:	08 94       	sec
    10c0:	c1 1c       	adc	r12, r1
    10c2:	d1 1c       	adc	r13, r1
    10c4:	35 c0       	rjmp	.+106    	; 0x1130 <lcd_putchar+0x14c>
    10c6:	0f 2d       	mov	r16, r15
    10c8:	10 e0       	ldi	r17, 0x00	; 0
    10ca:	90 e0       	ldi	r25, 0x00	; 0
    10cc:	9c 01       	movw	r18, r24
    10ce:	c2 9f       	mul	r28, r18
    10d0:	c0 01       	movw	r24, r0
    10d2:	c3 9f       	mul	r28, r19
    10d4:	90 0d       	add	r25, r0
    10d6:	d2 9f       	mul	r29, r18
    10d8:	90 0d       	add	r25, r0
    10da:	11 24       	eor	r1, r1
    10dc:	e0 91 21 01 	lds	r30, 0x0121
    10e0:	f0 91 22 01 	lds	r31, 0x0122
    10e4:	e0 0f       	add	r30, r16
    10e6:	f1 1f       	adc	r31, r17
    10e8:	e8 0f       	add	r30, r24
    10ea:	f9 1f       	adc	r31, r25
    10ec:	80 81       	ld	r24, Z
    10ee:	0e 94 00 07 	call	0xe00	; 0xe00 <_ZN12OrangutanLCD9send_dataEh>
    10f2:	e0 91 21 01 	lds	r30, 0x0121
    10f6:	f0 91 22 01 	lds	r31, 0x0122
    10fa:	80 91 12 01 	lds	r24, 0x0112
    10fe:	90 e0       	ldi	r25, 0x00	; 0
    1100:	c8 9f       	mul	r28, r24
    1102:	d0 01       	movw	r26, r0
    1104:	c9 9f       	mul	r28, r25
    1106:	b0 0d       	add	r27, r0
    1108:	d8 9f       	mul	r29, r24
    110a:	b0 0d       	add	r27, r0
    110c:	11 24       	eor	r1, r1
    110e:	e0 0f       	add	r30, r16
    1110:	f1 1f       	adc	r31, r17
    1112:	ae 0f       	add	r26, r30
    1114:	bf 1f       	adc	r27, r31
    1116:	ac 01       	movw	r20, r24
    1118:	c4 9e       	mul	r12, r20
    111a:	c0 01       	movw	r24, r0
    111c:	c5 9e       	mul	r12, r21
    111e:	90 0d       	add	r25, r0
    1120:	d4 9e       	mul	r13, r20
    1122:	90 0d       	add	r25, r0
    1124:	11 24       	eor	r1, r1
    1126:	e8 0f       	add	r30, r24
    1128:	f9 1f       	adc	r31, r25
    112a:	80 81       	ld	r24, Z
    112c:	8c 93       	st	X, r24
    112e:	f3 94       	inc	r15
    1130:	80 91 12 01 	lds	r24, 0x0112
    1134:	f8 16       	cp	r15, r24
    1136:	38 f2       	brcs	.-114    	; 0x10c6 <lcd_putchar+0xe2>
    1138:	e6 01       	movw	r28, r12
    113a:	60 91 11 01 	lds	r22, 0x0111
    113e:	86 2f       	mov	r24, r22
    1140:	90 e0       	ldi	r25, 0x00	; 0
    1142:	02 97       	sbiw	r24, 0x02	; 2
    1144:	c8 17       	cp	r28, r24
    1146:	d9 07       	cpc	r29, r25
    1148:	0c f4       	brge	.+2      	; 0x114c <lcd_putchar+0x168>
    114a:	b3 cf       	rjmp	.-154    	; 0x10b2 <lcd_putchar+0xce>
    114c:	62 30       	cpi	r22, 0x02	; 2
    114e:	08 f4       	brcc	.+2      	; 0x1152 <lcd_putchar+0x16e>
    1150:	40 c0       	rjmp	.+128    	; 0x11d2 <lcd_putchar+0x1ee>
    1152:	62 50       	subi	r22, 0x02	; 2
    1154:	80 e0       	ldi	r24, 0x00	; 0
    1156:	0e 94 ae 06 	call	0xd5c	; 0xd5c <_ZN12OrangutanLCD6gotoXYEhh>
    115a:	ff 24       	eor	r15, r15
    115c:	e0 e2       	ldi	r30, 0x20	; 32
    115e:	de 2e       	mov	r13, r30
    1160:	34 c0       	rjmp	.+104    	; 0x11ca <lcd_putchar+0x1e6>
    1162:	0f 2d       	mov	r16, r15
    1164:	10 e0       	ldi	r17, 0x00	; 0
    1166:	80 91 11 01 	lds	r24, 0x0111
    116a:	90 e0       	ldi	r25, 0x00	; 0
    116c:	02 97       	sbiw	r24, 0x02	; 2
    116e:	30 e0       	ldi	r19, 0x00	; 0
    1170:	ac 01       	movw	r20, r24
    1172:	42 9f       	mul	r20, r18
    1174:	c0 01       	movw	r24, r0
    1176:	43 9f       	mul	r20, r19
    1178:	90 0d       	add	r25, r0
    117a:	52 9f       	mul	r21, r18
    117c:	90 0d       	add	r25, r0
    117e:	11 24       	eor	r1, r1
    1180:	e0 91 21 01 	lds	r30, 0x0121
    1184:	f0 91 22 01 	lds	r31, 0x0122
    1188:	e0 0f       	add	r30, r16
    118a:	f1 1f       	adc	r31, r17
    118c:	e8 0f       	add	r30, r24
    118e:	f9 1f       	adc	r31, r25
    1190:	80 81       	ld	r24, Z
    1192:	0e 94 00 07 	call	0xe00	; 0xe00 <_ZN12OrangutanLCD9send_dataEh>
    1196:	20 91 11 01 	lds	r18, 0x0111
    119a:	30 e0       	ldi	r19, 0x00	; 0
    119c:	22 50       	subi	r18, 0x02	; 2
    119e:	30 40       	sbci	r19, 0x00	; 0
    11a0:	80 91 12 01 	lds	r24, 0x0112
    11a4:	90 e0       	ldi	r25, 0x00	; 0
    11a6:	ac 01       	movw	r20, r24
    11a8:	24 9f       	mul	r18, r20
    11aa:	c0 01       	movw	r24, r0
    11ac:	25 9f       	mul	r18, r21
    11ae:	90 0d       	add	r25, r0
    11b0:	34 9f       	mul	r19, r20
    11b2:	90 0d       	add	r25, r0
    11b4:	11 24       	eor	r1, r1
    11b6:	e0 91 21 01 	lds	r30, 0x0121
    11ba:	f0 91 22 01 	lds	r31, 0x0122
    11be:	e0 0f       	add	r30, r16
    11c0:	f1 1f       	adc	r31, r17
    11c2:	e8 0f       	add	r30, r24
    11c4:	f9 1f       	adc	r31, r25
    11c6:	d0 82       	st	Z, r13
    11c8:	f3 94       	inc	r15
    11ca:	20 91 12 01 	lds	r18, 0x0112
    11ce:	f2 16       	cp	r15, r18
    11d0:	40 f2       	brcs	.-112    	; 0x1162 <lcd_putchar+0x17e>
    11d2:	60 91 11 01 	lds	r22, 0x0111
    11d6:	61 50       	subi	r22, 0x01	; 1
    11d8:	80 e0       	ldi	r24, 0x00	; 0
    11da:	0e 94 ae 06 	call	0xd5c	; 0xd5c <_ZN12OrangutanLCD6gotoXYEhh>
    11de:	00 e0       	ldi	r16, 0x00	; 0
    11e0:	04 c0       	rjmp	.+8      	; 0x11ea <lcd_putchar+0x206>
    11e2:	80 e2       	ldi	r24, 0x20	; 32
    11e4:	0e 94 00 07 	call	0xe00	; 0xe00 <_ZN12OrangutanLCD9send_dataEh>
    11e8:	0f 5f       	subi	r16, 0xFF	; 255
    11ea:	80 91 12 01 	lds	r24, 0x0112
    11ee:	08 17       	cp	r16, r24
    11f0:	c0 f3       	brcs	.-16     	; 0x11e2 <lcd_putchar+0x1fe>
    11f2:	03 c0       	rjmp	.+6      	; 0x11fa <lcd_putchar+0x216>
    11f4:	4f 5f       	subi	r20, 0xFF	; 255
    11f6:	40 93 23 01 	sts	0x0123, r20
    11fa:	10 92 24 01 	sts	0x0124, r1
    11fe:	80 91 24 01 	lds	r24, 0x0124
    1202:	60 91 23 01 	lds	r22, 0x0123
    1206:	0e 94 ae 06 	call	0xd5c	; 0xd5c <_ZN12OrangutanLCD6gotoXYEhh>
    120a:	2e 2d       	mov	r18, r14
    120c:	33 27       	eor	r19, r19
    120e:	27 fd       	sbrc	r18, 7
    1210:	30 95       	com	r19
    1212:	c9 01       	movw	r24, r18
    1214:	cd b7       	in	r28, 0x3d	; 61
    1216:	de b7       	in	r29, 0x3e	; 62
    1218:	e8 e0       	ldi	r30, 0x08	; 8
    121a:	0c 94 30 16 	jmp	0x2c60	; 0x2c60 <__epilogue_restores__+0x14>

0000121e <_ZN12OrangutanLCD19loadCustomCharacterEPKch>:
    121e:	ef 92       	push	r14
    1220:	ff 92       	push	r15
    1222:	0f 93       	push	r16
    1224:	1f 93       	push	r17
    1226:	cf 93       	push	r28
    1228:	df 93       	push	r29
    122a:	7c 01       	movw	r14, r24
    122c:	06 2f       	mov	r16, r22
    122e:	10 e0       	ldi	r17, 0x00	; 0
    1230:	f3 e0       	ldi	r31, 0x03	; 3
    1232:	00 0f       	add	r16, r16
    1234:	11 1f       	adc	r17, r17
    1236:	fa 95       	dec	r31
    1238:	e1 f7       	brne	.-8      	; 0x1232 <_ZN12OrangutanLCD19loadCustomCharacterEPKch+0x14>
    123a:	c0 e0       	ldi	r28, 0x00	; 0
    123c:	d0 e0       	ldi	r29, 0x00	; 0
    123e:	9e 01       	movw	r18, r28
    1240:	20 0f       	add	r18, r16
    1242:	82 2f       	mov	r24, r18
    1244:	80 64       	ori	r24, 0x40	; 64
    1246:	0e 94 82 06 	call	0xd04	; 0xd04 <_ZN12OrangutanLCD8send_cmdEh>
    124a:	f7 01       	movw	r30, r14
    124c:	ec 0f       	add	r30, r28
    124e:	fd 1f       	adc	r31, r29
    1250:	e4 91       	lpm	r30, Z+
    1252:	8e 2f       	mov	r24, r30
    1254:	0e 94 00 07 	call	0xe00	; 0xe00 <_ZN12OrangutanLCD9send_dataEh>
    1258:	21 96       	adiw	r28, 0x01	; 1
    125a:	c8 30       	cpi	r28, 0x08	; 8
    125c:	d1 05       	cpc	r29, r1
    125e:	79 f7       	brne	.-34     	; 0x123e <_ZN12OrangutanLCD19loadCustomCharacterEPKch+0x20>
    1260:	cd b7       	in	r28, 0x3d	; 61
    1262:	de b7       	in	r29, 0x3e	; 62
    1264:	e6 e0       	ldi	r30, 0x06	; 6
    1266:	0c 94 32 16 	jmp	0x2c64	; 0x2c64 <__epilogue_restores__+0x18>

0000126a <lcd_load_custom_character>:
    126a:	0e 94 0f 09 	call	0x121e	; 0x121e <_ZN12OrangutanLCD19loadCustomCharacterEPKch>
    126e:	08 95       	ret

00001270 <_ZN12OrangutanLCD13send_4bit_cmdEh>:
    1270:	60 e0       	ldi	r22, 0x00	; 0
    1272:	41 e0       	ldi	r20, 0x01	; 1
    1274:	0e 94 4e 06 	call	0xc9c	; 0xc9c <_ZN12OrangutanLCD4sendEhhh>
    1278:	08 95       	ret

0000127a <_ZN12OrangutanLCD6scrollEhhj>:
    127a:	0f 93       	push	r16
    127c:	1f 93       	push	r17
    127e:	cf 93       	push	r28
    1280:	df 93       	push	r29
    1282:	08 2f       	mov	r16, r24
    1284:	16 2f       	mov	r17, r22
    1286:	ea 01       	movw	r28, r20
    1288:	0b c0       	rjmp	.+22     	; 0x12a0 <_ZN12OrangutanLCD6scrollEhhj+0x26>
    128a:	00 23       	and	r16, r16
    128c:	11 f4       	brne	.+4      	; 0x1292 <_ZN12OrangutanLCD6scrollEhhj+0x18>
    128e:	88 e1       	ldi	r24, 0x18	; 24
    1290:	01 c0       	rjmp	.+2      	; 0x1294 <_ZN12OrangutanLCD6scrollEhhj+0x1a>
    1292:	8c e1       	ldi	r24, 0x1C	; 28
    1294:	0e 94 82 06 	call	0xd04	; 0xd04 <_ZN12OrangutanLCD8send_cmdEh>
    1298:	ce 01       	movw	r24, r28
    129a:	0e 94 41 0d 	call	0x1a82	; 0x1a82 <_ZN13OrangutanTime17delayMillisecondsEj>
    129e:	11 50       	subi	r17, 0x01	; 1
    12a0:	11 23       	and	r17, r17
    12a2:	99 f7       	brne	.-26     	; 0x128a <_ZN12OrangutanLCD6scrollEhhj+0x10>
    12a4:	df 91       	pop	r29
    12a6:	cf 91       	pop	r28
    12a8:	1f 91       	pop	r17
    12aa:	0f 91       	pop	r16
    12ac:	08 95       	ret

000012ae <lcd_scroll>:
    12ae:	0e 94 3d 09 	call	0x127a	; 0x127a <_ZN12OrangutanLCD6scrollEhhj>
    12b2:	08 95       	ret

000012b4 <_ZN16OrangutanDigital9setOutputEhh>:
    12b4:	28 2f       	mov	r18, r24
    12b6:	88 30       	cpi	r24, 0x08	; 8
    12b8:	68 f4       	brcc	.+26     	; 0x12d4 <_ZN16OrangutanDigital9setOutputEhh+0x20>
    12ba:	81 e0       	ldi	r24, 0x01	; 1
    12bc:	90 e0       	ldi	r25, 0x00	; 0
    12be:	02 c0       	rjmp	.+4      	; 0x12c4 <_ZN16OrangutanDigital9setOutputEhh+0x10>
    12c0:	88 0f       	add	r24, r24
    12c2:	99 1f       	adc	r25, r25
    12c4:	2a 95       	dec	r18
    12c6:	e2 f7       	brpl	.-8      	; 0x12c0 <_ZN16OrangutanDigital9setOutputEhh+0xc>
    12c8:	28 2f       	mov	r18, r24
    12ca:	aa e2       	ldi	r26, 0x2A	; 42
    12cc:	b0 e0       	ldi	r27, 0x00	; 0
    12ce:	eb e2       	ldi	r30, 0x2B	; 43
    12d0:	f0 e0       	ldi	r31, 0x00	; 0
    12d2:	29 c0       	rjmp	.+82     	; 0x1326 <_ZN16OrangutanDigital9setOutputEhh+0x72>
    12d4:	8e 30       	cpi	r24, 0x0E	; 14
    12d6:	80 f4       	brcc	.+32     	; 0x12f8 <_ZN16OrangutanDigital9setOutputEhh+0x44>
    12d8:	30 e0       	ldi	r19, 0x00	; 0
    12da:	28 50       	subi	r18, 0x08	; 8
    12dc:	30 40       	sbci	r19, 0x00	; 0
    12de:	81 e0       	ldi	r24, 0x01	; 1
    12e0:	90 e0       	ldi	r25, 0x00	; 0
    12e2:	02 c0       	rjmp	.+4      	; 0x12e8 <_ZN16OrangutanDigital9setOutputEhh+0x34>
    12e4:	88 0f       	add	r24, r24
    12e6:	99 1f       	adc	r25, r25
    12e8:	2a 95       	dec	r18
    12ea:	e2 f7       	brpl	.-8      	; 0x12e4 <_ZN16OrangutanDigital9setOutputEhh+0x30>
    12ec:	28 2f       	mov	r18, r24
    12ee:	a4 e2       	ldi	r26, 0x24	; 36
    12f0:	b0 e0       	ldi	r27, 0x00	; 0
    12f2:	e5 e2       	ldi	r30, 0x25	; 37
    12f4:	f0 e0       	ldi	r31, 0x00	; 0
    12f6:	17 c0       	rjmp	.+46     	; 0x1326 <_ZN16OrangutanDigital9setOutputEhh+0x72>
    12f8:	85 31       	cpi	r24, 0x15	; 21
    12fa:	30 f0       	brcs	.+12     	; 0x1308 <_ZN16OrangutanDigital9setOutputEhh+0x54>
    12fc:	20 e0       	ldi	r18, 0x00	; 0
    12fe:	a0 e0       	ldi	r26, 0x00	; 0
    1300:	b0 e0       	ldi	r27, 0x00	; 0
    1302:	e0 e0       	ldi	r30, 0x00	; 0
    1304:	f0 e0       	ldi	r31, 0x00	; 0
    1306:	0f c0       	rjmp	.+30     	; 0x1326 <_ZN16OrangutanDigital9setOutputEhh+0x72>
    1308:	30 e0       	ldi	r19, 0x00	; 0
    130a:	2e 50       	subi	r18, 0x0E	; 14
    130c:	30 40       	sbci	r19, 0x00	; 0
    130e:	81 e0       	ldi	r24, 0x01	; 1
    1310:	90 e0       	ldi	r25, 0x00	; 0
    1312:	02 c0       	rjmp	.+4      	; 0x1318 <_ZN16OrangutanDigital9setOutputEhh+0x64>
    1314:	88 0f       	add	r24, r24
    1316:	99 1f       	adc	r25, r25
    1318:	2a 95       	dec	r18
    131a:	e2 f7       	brpl	.-8      	; 0x1314 <_ZN16OrangutanDigital9setOutputEhh+0x60>
    131c:	28 2f       	mov	r18, r24
    131e:	a7 e2       	ldi	r26, 0x27	; 39
    1320:	b0 e0       	ldi	r27, 0x00	; 0
    1322:	e8 e2       	ldi	r30, 0x28	; 40
    1324:	f0 e0       	ldi	r31, 0x00	; 0
    1326:	6f 3f       	cpi	r22, 0xFF	; 255
    1328:	19 f4       	brne	.+6      	; 0x1330 <_ZN16OrangutanDigital9setOutputEhh+0x7c>
    132a:	80 81       	ld	r24, Z
    132c:	82 27       	eor	r24, r18
    132e:	09 c0       	rjmp	.+18     	; 0x1342 <_ZN16OrangutanDigital9setOutputEhh+0x8e>
    1330:	66 23       	and	r22, r22
    1332:	19 f0       	breq	.+6      	; 0x133a <_ZN16OrangutanDigital9setOutputEhh+0x86>
    1334:	80 81       	ld	r24, Z
    1336:	82 2b       	or	r24, r18
    1338:	04 c0       	rjmp	.+8      	; 0x1342 <_ZN16OrangutanDigital9setOutputEhh+0x8e>
    133a:	90 81       	ld	r25, Z
    133c:	82 2f       	mov	r24, r18
    133e:	80 95       	com	r24
    1340:	89 23       	and	r24, r25
    1342:	80 83       	st	Z, r24
    1344:	8c 91       	ld	r24, X
    1346:	82 2b       	or	r24, r18
    1348:	8c 93       	st	X, r24
    134a:	08 95       	ret

0000134c <_ZN15OrangutanMotorsC2Ev>:
    134c:	08 95       	ret

0000134e <_ZN15OrangutanMotorsC1Ev>:
    134e:	08 95       	ret

00001350 <_ZN15OrangutanMotors5init2Ev>:
    1350:	e0 eb       	ldi	r30, 0xB0	; 176
    1352:	f0 e0       	ldi	r31, 0x00	; 0
    1354:	83 ef       	ldi	r24, 0xF3	; 243
    1356:	80 83       	st	Z, r24
    1358:	80 81       	ld	r24, Z
    135a:	84 bd       	out	0x24, r24	; 36
    135c:	e1 eb       	ldi	r30, 0xB1	; 177
    135e:	f0 e0       	ldi	r31, 0x00	; 0
    1360:	82 e0       	ldi	r24, 0x02	; 2
    1362:	80 83       	st	Z, r24
    1364:	80 81       	ld	r24, Z
    1366:	85 bd       	out	0x25, r24	; 37
    1368:	e4 eb       	ldi	r30, 0xB4	; 180
    136a:	f0 e0       	ldi	r31, 0x00	; 0
    136c:	10 82       	st	Z, r1
    136e:	80 81       	ld	r24, Z
    1370:	e3 eb       	ldi	r30, 0xB3	; 179
    1372:	f0 e0       	ldi	r31, 0x00	; 0
    1374:	80 83       	st	Z, r24
    1376:	80 81       	ld	r24, Z
    1378:	88 bd       	out	0x28, r24	; 40
    137a:	88 b5       	in	r24, 0x28	; 40
    137c:	87 bd       	out	0x27, r24	; 39
    137e:	86 e0       	ldi	r24, 0x06	; 6
    1380:	60 e0       	ldi	r22, 0x00	; 0
    1382:	0e 94 5a 09 	call	0x12b4	; 0x12b4 <_ZN16OrangutanDigital9setOutputEhh>
    1386:	85 e0       	ldi	r24, 0x05	; 5
    1388:	60 e0       	ldi	r22, 0x00	; 0
    138a:	0e 94 5a 09 	call	0x12b4	; 0x12b4 <_ZN16OrangutanDigital9setOutputEhh>
    138e:	8b e0       	ldi	r24, 0x0B	; 11
    1390:	60 e0       	ldi	r22, 0x00	; 0
    1392:	0e 94 5a 09 	call	0x12b4	; 0x12b4 <_ZN16OrangutanDigital9setOutputEhh>
    1396:	83 e0       	ldi	r24, 0x03	; 3
    1398:	60 e0       	ldi	r22, 0x00	; 0
    139a:	0e 94 5a 09 	call	0x12b4	; 0x12b4 <_ZN16OrangutanDigital9setOutputEhh>
    139e:	08 95       	ret

000013a0 <_ZN15OrangutanMotors4initEv>:
    13a0:	80 91 2a 01 	lds	r24, 0x012A
    13a4:	88 23       	and	r24, r24
    13a6:	29 f4       	brne	.+10     	; 0x13b2 <_ZN15OrangutanMotors4initEv+0x12>
    13a8:	81 e0       	ldi	r24, 0x01	; 1
    13aa:	80 93 2a 01 	sts	0x012A, r24
    13ae:	0e 94 a8 09 	call	0x1350	; 0x1350 <_ZN15OrangutanMotors5init2Ev>
    13b2:	08 95       	ret

000013b4 <_ZN15OrangutanMotors10setM1SpeedEi>:
    13b4:	cf 93       	push	r28
    13b6:	df 93       	push	r29
    13b8:	ec 01       	movw	r28, r24
    13ba:	0e 94 d0 09 	call	0x13a0	; 0x13a0 <_ZN15OrangutanMotors4initEv>
    13be:	d7 fd       	sbrc	r29, 7
    13c0:	02 c0       	rjmp	.+4      	; 0x13c6 <_ZN15OrangutanMotors10setM1SpeedEi+0x12>
    13c2:	20 e0       	ldi	r18, 0x00	; 0
    13c4:	04 c0       	rjmp	.+8      	; 0x13ce <_ZN15OrangutanMotors10setM1SpeedEi+0x1a>
    13c6:	d0 95       	com	r29
    13c8:	c1 95       	neg	r28
    13ca:	df 4f       	sbci	r29, 0xFF	; 255
    13cc:	21 e0       	ldi	r18, 0x01	; 1
    13ce:	ce 01       	movw	r24, r28
    13d0:	cf 3f       	cpi	r28, 0xFF	; 255
    13d2:	d1 05       	cpc	r29, r1
    13d4:	19 f0       	breq	.+6      	; 0x13dc <_ZN15OrangutanMotors10setM1SpeedEi+0x28>
    13d6:	14 f0       	brlt	.+4      	; 0x13dc <_ZN15OrangutanMotors10setM1SpeedEi+0x28>
    13d8:	8f ef       	ldi	r24, 0xFF	; 255
    13da:	90 e0       	ldi	r25, 0x00	; 0
    13dc:	22 23       	and	r18, r18
    13de:	19 f0       	breq	.+6      	; 0x13e6 <_ZN15OrangutanMotors10setM1SpeedEi+0x32>
    13e0:	18 bc       	out	0x28, r1	; 40
    13e2:	87 bd       	out	0x27, r24	; 39
    13e4:	02 c0       	rjmp	.+4      	; 0x13ea <_ZN15OrangutanMotors10setM1SpeedEi+0x36>
    13e6:	88 bd       	out	0x28, r24	; 40
    13e8:	17 bc       	out	0x27, r1	; 39
    13ea:	df 91       	pop	r29
    13ec:	cf 91       	pop	r28
    13ee:	08 95       	ret

000013f0 <set_m1_speed>:
    13f0:	0e 94 da 09 	call	0x13b4	; 0x13b4 <_ZN15OrangutanMotors10setM1SpeedEi>
    13f4:	08 95       	ret

000013f6 <_ZN15OrangutanMotors10setM2SpeedEi>:
    13f6:	cf 93       	push	r28
    13f8:	df 93       	push	r29
    13fa:	ec 01       	movw	r28, r24
    13fc:	0e 94 d0 09 	call	0x13a0	; 0x13a0 <_ZN15OrangutanMotors4initEv>
    1400:	d7 fd       	sbrc	r29, 7
    1402:	02 c0       	rjmp	.+4      	; 0x1408 <_ZN15OrangutanMotors10setM2SpeedEi+0x12>
    1404:	20 e0       	ldi	r18, 0x00	; 0
    1406:	04 c0       	rjmp	.+8      	; 0x1410 <_ZN15OrangutanMotors10setM2SpeedEi+0x1a>
    1408:	d0 95       	com	r29
    140a:	c1 95       	neg	r28
    140c:	df 4f       	sbci	r29, 0xFF	; 255
    140e:	21 e0       	ldi	r18, 0x01	; 1
    1410:	ce 01       	movw	r24, r28
    1412:	cf 3f       	cpi	r28, 0xFF	; 255
    1414:	d1 05       	cpc	r29, r1
    1416:	19 f0       	breq	.+6      	; 0x141e <_ZN15OrangutanMotors10setM2SpeedEi+0x28>
    1418:	14 f0       	brlt	.+4      	; 0x141e <_ZN15OrangutanMotors10setM2SpeedEi+0x28>
    141a:	8f ef       	ldi	r24, 0xFF	; 255
    141c:	90 e0       	ldi	r25, 0x00	; 0
    141e:	22 23       	and	r18, r18
    1420:	29 f0       	breq	.+10     	; 0x142c <_ZN15OrangutanMotors10setM2SpeedEi+0x36>
    1422:	10 92 b4 00 	sts	0x00B4, r1
    1426:	80 93 b3 00 	sts	0x00B3, r24
    142a:	04 c0       	rjmp	.+8      	; 0x1434 <_ZN15OrangutanMotors10setM2SpeedEi+0x3e>
    142c:	80 93 b4 00 	sts	0x00B4, r24
    1430:	10 92 b3 00 	sts	0x00B3, r1
    1434:	df 91       	pop	r29
    1436:	cf 91       	pop	r28
    1438:	08 95       	ret

0000143a <set_m2_speed>:
    143a:	0e 94 fb 09 	call	0x13f6	; 0x13f6 <_ZN15OrangutanMotors10setM2SpeedEi>
    143e:	08 95       	ret

00001440 <_ZN15OrangutanMotors9setSpeedsEii>:
    1440:	0f 93       	push	r16
    1442:	1f 93       	push	r17
    1444:	8b 01       	movw	r16, r22
    1446:	0e 94 da 09 	call	0x13b4	; 0x13b4 <_ZN15OrangutanMotors10setM1SpeedEi>
    144a:	c8 01       	movw	r24, r16
    144c:	0e 94 fb 09 	call	0x13f6	; 0x13f6 <_ZN15OrangutanMotors10setM2SpeedEi>
    1450:	1f 91       	pop	r17
    1452:	0f 91       	pop	r16
    1454:	08 95       	ret

00001456 <set_motors>:
    1456:	0e 94 20 0a 	call	0x1440	; 0x1440 <_ZN15OrangutanMotors9setSpeedsEii>
    145a:	08 95       	ret

0000145c <serial_get_mode>:
    145c:	80 91 2b 01 	lds	r24, 0x012B
    1460:	08 95       	ret

00001462 <serial_receive>:
    1462:	20 91 c1 00 	lds	r18, 0x00C1
    1466:	2f 77       	andi	r18, 0x7F	; 127
    1468:	20 93 c1 00 	sts	0x00C1, r18
    146c:	90 93 34 01 	sts	0x0134, r25
    1470:	80 93 33 01 	sts	0x0133, r24
    1474:	10 92 2d 01 	sts	0x012D, r1
    1478:	60 93 2f 01 	sts	0x012F, r22
    147c:	10 92 30 01 	sts	0x0130, r1
    1480:	80 91 2b 01 	lds	r24, 0x012B
    1484:	88 23       	and	r24, r24
    1486:	29 f4       	brne	.+10     	; 0x1492 <serial_receive+0x30>
    1488:	80 91 c1 00 	lds	r24, 0x00C1
    148c:	80 68       	ori	r24, 0x80	; 128
    148e:	80 93 c1 00 	sts	0x00C1, r24
    1492:	08 95       	ret

00001494 <serial_receive_ring>:
    1494:	20 91 c1 00 	lds	r18, 0x00C1
    1498:	2f 77       	andi	r18, 0x7F	; 127
    149a:	20 93 c1 00 	sts	0x00C1, r18
    149e:	90 93 34 01 	sts	0x0134, r25
    14a2:	80 93 33 01 	sts	0x0133, r24
    14a6:	10 92 2d 01 	sts	0x012D, r1
    14aa:	60 93 2f 01 	sts	0x012F, r22
    14ae:	81 e0       	ldi	r24, 0x01	; 1
    14b0:	80 93 30 01 	sts	0x0130, r24
    14b4:	80 91 2b 01 	lds	r24, 0x012B
    14b8:	88 23       	and	r24, r24
    14ba:	29 f4       	brne	.+10     	; 0x14c6 <serial_receive_ring+0x32>
    14bc:	80 91 c1 00 	lds	r24, 0x00C1
    14c0:	80 68       	ori	r24, 0x80	; 128
    14c2:	80 93 c1 00 	sts	0x00C1, r24
    14c6:	08 95       	ret

000014c8 <serial_cancel_receive>:
    14c8:	80 91 c1 00 	lds	r24, 0x00C1
    14cc:	8f 77       	andi	r24, 0x7F	; 127
    14ce:	80 93 c1 00 	sts	0x00C1, r24
    14d2:	10 92 34 01 	sts	0x0134, r1
    14d6:	10 92 33 01 	sts	0x0133, r1
    14da:	10 92 2d 01 	sts	0x012D, r1
    14de:	10 92 2f 01 	sts	0x012F, r1
    14e2:	10 92 30 01 	sts	0x0130, r1
    14e6:	80 91 2b 01 	lds	r24, 0x012B
    14ea:	88 23       	and	r24, r24
    14ec:	29 f4       	brne	.+10     	; 0x14f8 <serial_cancel_receive+0x30>
    14ee:	80 91 c1 00 	lds	r24, 0x00C1
    14f2:	80 68       	ori	r24, 0x80	; 128
    14f4:	80 93 c1 00 	sts	0x00C1, r24
    14f8:	08 95       	ret

000014fa <serial_get_received_bytes>:
    14fa:	80 91 2d 01 	lds	r24, 0x012D
    14fe:	08 95       	ret

00001500 <serial_receive_buffer_full>:
    1500:	90 91 2d 01 	lds	r25, 0x012D
    1504:	20 e0       	ldi	r18, 0x00	; 0
    1506:	80 91 2f 01 	lds	r24, 0x012F
    150a:	98 17       	cp	r25, r24
    150c:	09 f4       	brne	.+2      	; 0x1510 <serial_receive_buffer_full+0x10>
    150e:	21 e0       	ldi	r18, 0x01	; 1
    1510:	82 2f       	mov	r24, r18
    1512:	08 95       	ret

00001514 <serial_send>:
    1514:	90 93 32 01 	sts	0x0132, r25
    1518:	80 93 31 01 	sts	0x0131, r24
    151c:	10 92 2c 01 	sts	0x012C, r1
    1520:	60 93 2e 01 	sts	0x012E, r22
    1524:	89 2b       	or	r24, r25
    1526:	61 f0       	breq	.+24     	; 0x1540 <serial_send+0x2c>
    1528:	80 91 2c 01 	lds	r24, 0x012C
    152c:	86 17       	cp	r24, r22
    152e:	40 f4       	brcc	.+16     	; 0x1540 <serial_send+0x2c>
    1530:	80 91 2b 01 	lds	r24, 0x012B
    1534:	88 23       	and	r24, r24
    1536:	21 f4       	brne	.+8      	; 0x1540 <serial_send+0x2c>
    1538:	80 91 c1 00 	lds	r24, 0x00C1
    153c:	80 62       	ori	r24, 0x20	; 32
    153e:	03 c0       	rjmp	.+6      	; 0x1546 <serial_send+0x32>
    1540:	80 91 c1 00 	lds	r24, 0x00C1
    1544:	8f 7d       	andi	r24, 0xDF	; 223
    1546:	80 93 c1 00 	sts	0x00C1, r24
    154a:	08 95       	ret

0000154c <serial_get_sent_bytes>:
    154c:	80 91 2c 01 	lds	r24, 0x012C
    1550:	08 95       	ret

00001552 <serial_send_buffer_empty>:
    1552:	90 91 2c 01 	lds	r25, 0x012C
    1556:	20 e0       	ldi	r18, 0x00	; 0
    1558:	80 91 2e 01 	lds	r24, 0x012E
    155c:	98 17       	cp	r25, r24
    155e:	09 f4       	brne	.+2      	; 0x1562 <serial_send_buffer_empty+0x10>
    1560:	21 e0       	ldi	r18, 0x01	; 1
    1562:	82 2f       	mov	r24, r18
    1564:	08 95       	ret

00001566 <_ZN15OrangutanSerial7receiveEPch>:
    1566:	20 91 c1 00 	lds	r18, 0x00C1
    156a:	2f 77       	andi	r18, 0x7F	; 127
    156c:	20 93 c1 00 	sts	0x00C1, r18
    1570:	90 93 34 01 	sts	0x0134, r25
    1574:	80 93 33 01 	sts	0x0133, r24
    1578:	10 92 2d 01 	sts	0x012D, r1
    157c:	60 93 2f 01 	sts	0x012F, r22
    1580:	10 92 30 01 	sts	0x0130, r1
    1584:	80 91 2b 01 	lds	r24, 0x012B
    1588:	88 23       	and	r24, r24
    158a:	29 f4       	brne	.+10     	; 0x1596 <_ZN15OrangutanSerial7receiveEPch+0x30>
    158c:	80 91 c1 00 	lds	r24, 0x00C1
    1590:	80 68       	ori	r24, 0x80	; 128
    1592:	80 93 c1 00 	sts	0x00C1, r24
    1596:	08 95       	ret

00001598 <_ZN15OrangutanSerial11receiveRingEPch>:
    1598:	20 91 c1 00 	lds	r18, 0x00C1
    159c:	2f 77       	andi	r18, 0x7F	; 127
    159e:	20 93 c1 00 	sts	0x00C1, r18
    15a2:	90 93 34 01 	sts	0x0134, r25
    15a6:	80 93 33 01 	sts	0x0133, r24
    15aa:	10 92 2d 01 	sts	0x012D, r1
    15ae:	60 93 2f 01 	sts	0x012F, r22
    15b2:	81 e0       	ldi	r24, 0x01	; 1
    15b4:	80 93 30 01 	sts	0x0130, r24
    15b8:	80 91 2b 01 	lds	r24, 0x012B
    15bc:	88 23       	and	r24, r24
    15be:	29 f4       	brne	.+10     	; 0x15ca <_ZN15OrangutanSerial11receiveRingEPch+0x32>
    15c0:	80 91 c1 00 	lds	r24, 0x00C1
    15c4:	80 68       	ori	r24, 0x80	; 128
    15c6:	80 93 c1 00 	sts	0x00C1, r24
    15ca:	08 95       	ret

000015cc <_ZN15OrangutanSerial13cancelReceiveEv>:
    15cc:	80 91 c1 00 	lds	r24, 0x00C1
    15d0:	8f 77       	andi	r24, 0x7F	; 127
    15d2:	80 93 c1 00 	sts	0x00C1, r24
    15d6:	10 92 34 01 	sts	0x0134, r1
    15da:	10 92 33 01 	sts	0x0133, r1
    15de:	10 92 2d 01 	sts	0x012D, r1
    15e2:	10 92 2f 01 	sts	0x012F, r1
    15e6:	10 92 30 01 	sts	0x0130, r1
    15ea:	80 91 2b 01 	lds	r24, 0x012B
    15ee:	88 23       	and	r24, r24
    15f0:	29 f4       	brne	.+10     	; 0x15fc <_ZN15OrangutanSerial13cancelReceiveEv+0x30>
    15f2:	80 91 c1 00 	lds	r24, 0x00C1
    15f6:	80 68       	ori	r24, 0x80	; 128
    15f8:	80 93 c1 00 	sts	0x00C1, r24
    15fc:	08 95       	ret

000015fe <_ZN15OrangutanSerial4sendEPch>:
    15fe:	90 93 32 01 	sts	0x0132, r25
    1602:	80 93 31 01 	sts	0x0131, r24
    1606:	10 92 2c 01 	sts	0x012C, r1
    160a:	60 93 2e 01 	sts	0x012E, r22
    160e:	89 2b       	or	r24, r25
    1610:	61 f0       	breq	.+24     	; 0x162a <_ZN15OrangutanSerial4sendEPch+0x2c>
    1612:	80 91 2c 01 	lds	r24, 0x012C
    1616:	86 17       	cp	r24, r22
    1618:	40 f4       	brcc	.+16     	; 0x162a <_ZN15OrangutanSerial4sendEPch+0x2c>
    161a:	80 91 2b 01 	lds	r24, 0x012B
    161e:	88 23       	and	r24, r24
    1620:	21 f4       	brne	.+8      	; 0x162a <_ZN15OrangutanSerial4sendEPch+0x2c>
    1622:	80 91 c1 00 	lds	r24, 0x00C1
    1626:	80 62       	ori	r24, 0x20	; 32
    1628:	03 c0       	rjmp	.+6      	; 0x1630 <_ZN15OrangutanSerial4sendEPch+0x32>
    162a:	80 91 c1 00 	lds	r24, 0x00C1
    162e:	8f 7d       	andi	r24, 0xDF	; 223
    1630:	80 93 c1 00 	sts	0x00C1, r24
    1634:	08 95       	ret

00001636 <_ZN15OrangutanSerial8initPortEh>:
    1636:	20 91 2b 01 	lds	r18, 0x012B
    163a:	22 23       	and	r18, r18
    163c:	11 f4       	brne	.+4      	; 0x1642 <_ZN15OrangutanSerial8initPortEh+0xc>
    163e:	88 e9       	ldi	r24, 0x98	; 152
    1640:	01 c0       	rjmp	.+2      	; 0x1644 <_ZN15OrangutanSerial8initPortEh+0xe>
    1642:	88 e1       	ldi	r24, 0x18	; 24
    1644:	80 93 c1 00 	sts	0x00C1, r24
    1648:	80 91 31 01 	lds	r24, 0x0131
    164c:	90 91 32 01 	lds	r25, 0x0132
    1650:	89 2b       	or	r24, r25
    1652:	79 f0       	breq	.+30     	; 0x1672 <_ZN15OrangutanSerial8initPortEh+0x3c>
    1654:	90 91 2c 01 	lds	r25, 0x012C
    1658:	80 91 2e 01 	lds	r24, 0x012E
    165c:	98 17       	cp	r25, r24
    165e:	48 f4       	brcc	.+18     	; 0x1672 <_ZN15OrangutanSerial8initPortEh+0x3c>
    1660:	22 23       	and	r18, r18
    1662:	39 f4       	brne	.+14     	; 0x1672 <_ZN15OrangutanSerial8initPortEh+0x3c>
    1664:	80 91 c1 00 	lds	r24, 0x00C1
    1668:	80 62       	ori	r24, 0x20	; 32
    166a:	80 93 c1 00 	sts	0x00C1, r24
    166e:	78 94       	sei
    1670:	08 95       	ret
    1672:	80 91 c1 00 	lds	r24, 0x00C1
    1676:	8f 7d       	andi	r24, 0xDF	; 223
    1678:	f8 cf       	rjmp	.-16     	; 0x166a <_ZN15OrangutanSerial8initPortEh+0x34>

0000167a <_ZN15OrangutanSerial7setModeEh>:
    167a:	80 93 2b 01 	sts	0x012B, r24
    167e:	80 e0       	ldi	r24, 0x00	; 0
    1680:	0e 94 1b 0b 	call	0x1636	; 0x1636 <_ZN15OrangutanSerial8initPortEh>
    1684:	08 95       	ret

00001686 <serial_set_mode>:
    1686:	0e 94 3d 0b 	call	0x167a	; 0x167a <_ZN15OrangutanSerial7setModeEh>
    168a:	08 95       	ret

0000168c <_ZN15OrangutanSerial11setBaudRateEm>:
    168c:	ef 92       	push	r14
    168e:	ff 92       	push	r15
    1690:	0f 93       	push	r16
    1692:	1f 93       	push	r17
    1694:	7b 01       	movw	r14, r22
    1696:	8c 01       	movw	r16, r24
    1698:	80 e0       	ldi	r24, 0x00	; 0
    169a:	0e 94 1b 0b 	call	0x1636	; 0x1636 <_ZN15OrangutanSerial8initPortEh>
    169e:	60 ea       	ldi	r22, 0xA0	; 160
    16a0:	75 e2       	ldi	r23, 0x25	; 37
    16a2:	86 e2       	ldi	r24, 0x26	; 38
    16a4:	90 e0       	ldi	r25, 0x00	; 0
    16a6:	6e 19       	sub	r22, r14
    16a8:	7f 09       	sbc	r23, r15
    16aa:	80 0b       	sbc	r24, r16
    16ac:	91 0b       	sbc	r25, r17
    16ae:	33 e0       	ldi	r19, 0x03	; 3
    16b0:	66 0f       	add	r22, r22
    16b2:	77 1f       	adc	r23, r23
    16b4:	88 1f       	adc	r24, r24
    16b6:	99 1f       	adc	r25, r25
    16b8:	3a 95       	dec	r19
    16ba:	d1 f7       	brne	.-12     	; 0x16b0 <_ZN15OrangutanSerial11setBaudRateEm+0x24>
    16bc:	24 e0       	ldi	r18, 0x04	; 4
    16be:	ee 0c       	add	r14, r14
    16c0:	ff 1c       	adc	r15, r15
    16c2:	00 1f       	adc	r16, r16
    16c4:	11 1f       	adc	r17, r17
    16c6:	2a 95       	dec	r18
    16c8:	d1 f7       	brne	.-12     	; 0x16be <_ZN15OrangutanSerial11setBaudRateEm+0x32>
    16ca:	a8 01       	movw	r20, r16
    16cc:	97 01       	movw	r18, r14
    16ce:	0e 94 cd 15 	call	0x2b9a	; 0x2b9a <__udivmodsi4>
    16d2:	30 93 c5 00 	sts	0x00C5, r19
    16d6:	20 93 c4 00 	sts	0x00C4, r18
    16da:	1f 91       	pop	r17
    16dc:	0f 91       	pop	r16
    16de:	ff 90       	pop	r15
    16e0:	ef 90       	pop	r14
    16e2:	08 95       	ret

000016e4 <serial_set_baud_rate>:
    16e4:	0e 94 46 0b 	call	0x168c	; 0x168c <_ZN15OrangutanSerial11setBaudRateEm>
    16e8:	08 95       	ret

000016ea <_ZN15OrangutanSerial5checkEv>:
    16ea:	80 91 c1 00 	lds	r24, 0x00C1
    16ee:	8f 7d       	andi	r24, 0xDF	; 223
    16f0:	80 93 c1 00 	sts	0x00C1, r24
    16f4:	e0 91 31 01 	lds	r30, 0x0131
    16f8:	f0 91 32 01 	lds	r31, 0x0132
    16fc:	30 97       	sbiw	r30, 0x00	; 0
    16fe:	09 f4       	brne	.+2      	; 0x1702 <_ZN15OrangutanSerial5checkEv+0x18>
    1700:	5d c0       	rjmp	.+186    	; 0x17bc <_ZN15OrangutanSerial5checkEv+0xd2>
    1702:	80 91 2c 01 	lds	r24, 0x012C
    1706:	90 91 2e 01 	lds	r25, 0x012E
    170a:	89 17       	cp	r24, r25
    170c:	08 f0       	brcs	.+2      	; 0x1710 <_ZN15OrangutanSerial5checkEv+0x26>
    170e:	5a c0       	rjmp	.+180    	; 0x17c4 <_ZN15OrangutanSerial5checkEv+0xda>
    1710:	80 91 c0 00 	lds	r24, 0x00C0
    1714:	85 ff       	sbrs	r24, 5
    1716:	56 c0       	rjmp	.+172    	; 0x17c4 <_ZN15OrangutanSerial5checkEv+0xda>
    1718:	80 91 2c 01 	lds	r24, 0x012C
    171c:	e8 0f       	add	r30, r24
    171e:	f1 1d       	adc	r31, r1
    1720:	80 81       	ld	r24, Z
    1722:	80 93 c6 00 	sts	0x00C6, r24
    1726:	80 91 2c 01 	lds	r24, 0x012C
    172a:	8f 5f       	subi	r24, 0xFF	; 255
    172c:	80 93 2c 01 	sts	0x012C, r24
    1730:	49 c0       	rjmp	.+146    	; 0x17c4 <_ZN15OrangutanSerial5checkEv+0xda>
    1732:	80 91 2b 01 	lds	r24, 0x012B
    1736:	88 23       	and	r24, r24
    1738:	09 f0       	breq	.+2      	; 0x173c <_ZN15OrangutanSerial5checkEv+0x52>
    173a:	40 c0       	rjmp	.+128    	; 0x17bc <_ZN15OrangutanSerial5checkEv+0xd2>
    173c:	80 91 c1 00 	lds	r24, 0x00C1
    1740:	80 62       	ori	r24, 0x20	; 32
    1742:	80 93 c1 00 	sts	0x00C1, r24
    1746:	80 91 c1 00 	lds	r24, 0x00C1
    174a:	8f 77       	andi	r24, 0x7F	; 127
    174c:	80 93 c1 00 	sts	0x00C1, r24
    1750:	e0 91 33 01 	lds	r30, 0x0133
    1754:	f0 91 34 01 	lds	r31, 0x0134
    1758:	30 97       	sbiw	r30, 0x00	; 0
    175a:	31 f1       	breq	.+76     	; 0x17a8 <_ZN15OrangutanSerial5checkEv+0xbe>
    175c:	80 91 2d 01 	lds	r24, 0x012D
    1760:	90 91 2f 01 	lds	r25, 0x012F
    1764:	89 17       	cp	r24, r25
    1766:	00 f5       	brcc	.+64     	; 0x17a8 <_ZN15OrangutanSerial5checkEv+0xbe>
    1768:	80 91 c0 00 	lds	r24, 0x00C0
    176c:	87 ff       	sbrs	r24, 7
    176e:	1c c0       	rjmp	.+56     	; 0x17a8 <_ZN15OrangutanSerial5checkEv+0xbe>
    1770:	20 91 c6 00 	lds	r18, 0x00C6
    1774:	80 91 2d 01 	lds	r24, 0x012D
    1778:	89 17       	cp	r24, r25
    177a:	50 f4       	brcc	.+20     	; 0x1790 <_ZN15OrangutanSerial5checkEv+0xa6>
    177c:	80 91 2d 01 	lds	r24, 0x012D
    1780:	e8 0f       	add	r30, r24
    1782:	f1 1d       	adc	r31, r1
    1784:	20 83       	st	Z, r18
    1786:	80 91 2d 01 	lds	r24, 0x012D
    178a:	8f 5f       	subi	r24, 0xFF	; 255
    178c:	80 93 2d 01 	sts	0x012D, r24
    1790:	90 91 2d 01 	lds	r25, 0x012D
    1794:	80 91 2f 01 	lds	r24, 0x012F
    1798:	98 17       	cp	r25, r24
    179a:	31 f4       	brne	.+12     	; 0x17a8 <_ZN15OrangutanSerial5checkEv+0xbe>
    179c:	80 91 30 01 	lds	r24, 0x0130
    17a0:	88 23       	and	r24, r24
    17a2:	11 f0       	breq	.+4      	; 0x17a8 <_ZN15OrangutanSerial5checkEv+0xbe>
    17a4:	10 92 2d 01 	sts	0x012D, r1
    17a8:	80 91 2b 01 	lds	r24, 0x012B
    17ac:	88 23       	and	r24, r24
    17ae:	79 f4       	brne	.+30     	; 0x17ce <_ZN15OrangutanSerial5checkEv+0xe4>
    17b0:	80 91 c1 00 	lds	r24, 0x00C1
    17b4:	80 68       	ori	r24, 0x80	; 128
    17b6:	80 93 c1 00 	sts	0x00C1, r24
    17ba:	08 95       	ret
    17bc:	80 91 c1 00 	lds	r24, 0x00C1
    17c0:	8f 7d       	andi	r24, 0xDF	; 223
    17c2:	bf cf       	rjmp	.-130    	; 0x1742 <_ZN15OrangutanSerial5checkEv+0x58>
    17c4:	80 91 2c 01 	lds	r24, 0x012C
    17c8:	89 17       	cp	r24, r25
    17ca:	c0 f7       	brcc	.-16     	; 0x17bc <_ZN15OrangutanSerial5checkEv+0xd2>
    17cc:	b2 cf       	rjmp	.-156    	; 0x1732 <_ZN15OrangutanSerial5checkEv+0x48>
    17ce:	08 95       	ret

000017d0 <serial_check>:
    17d0:	0e 94 75 0b 	call	0x16ea	; 0x16ea <_ZN15OrangutanSerial5checkEv>
    17d4:	08 95       	ret

000017d6 <_ZN15OrangutanSerial12sendBlockingEPch>:
    17d6:	90 93 32 01 	sts	0x0132, r25
    17da:	80 93 31 01 	sts	0x0131, r24
    17de:	10 92 2c 01 	sts	0x012C, r1
    17e2:	60 93 2e 01 	sts	0x012E, r22
    17e6:	89 2b       	or	r24, r25
    17e8:	a9 f0       	breq	.+42     	; 0x1814 <_ZN15OrangutanSerial12sendBlockingEPch+0x3e>
    17ea:	80 91 2c 01 	lds	r24, 0x012C
    17ee:	86 17       	cp	r24, r22
    17f0:	88 f4       	brcc	.+34     	; 0x1814 <_ZN15OrangutanSerial12sendBlockingEPch+0x3e>
    17f2:	80 91 2b 01 	lds	r24, 0x012B
    17f6:	88 23       	and	r24, r24
    17f8:	69 f4       	brne	.+26     	; 0x1814 <_ZN15OrangutanSerial12sendBlockingEPch+0x3e>
    17fa:	80 91 c1 00 	lds	r24, 0x00C1
    17fe:	80 62       	ori	r24, 0x20	; 32
    1800:	0c c0       	rjmp	.+24     	; 0x181a <_ZN15OrangutanSerial12sendBlockingEPch+0x44>
    1802:	0e 94 75 0b 	call	0x16ea	; 0x16ea <_ZN15OrangutanSerial5checkEv>
    1806:	90 91 2c 01 	lds	r25, 0x012C
    180a:	80 91 2e 01 	lds	r24, 0x012E
    180e:	98 17       	cp	r25, r24
    1810:	c1 f7       	brne	.-16     	; 0x1802 <_ZN15OrangutanSerial12sendBlockingEPch+0x2c>
    1812:	08 95       	ret
    1814:	80 91 c1 00 	lds	r24, 0x00C1
    1818:	8f 7d       	andi	r24, 0xDF	; 223
    181a:	80 93 c1 00 	sts	0x00C1, r24
    181e:	f3 cf       	rjmp	.-26     	; 0x1806 <_ZN15OrangutanSerial12sendBlockingEPch+0x30>

00001820 <serial_send_blocking>:
    1820:	0e 94 eb 0b 	call	0x17d6	; 0x17d6 <_ZN15OrangutanSerial12sendBlockingEPch>
    1824:	08 95       	ret

00001826 <__vector_18>:
    1826:	1f 92       	push	r1
    1828:	0f 92       	push	r0
    182a:	0f b6       	in	r0, 0x3f	; 63
    182c:	0f 92       	push	r0
    182e:	11 24       	eor	r1, r1
    1830:	2f 93       	push	r18
    1832:	8f 93       	push	r24
    1834:	9f 93       	push	r25
    1836:	ef 93       	push	r30
    1838:	ff 93       	push	r31
    183a:	20 91 c6 00 	lds	r18, 0x00C6
    183e:	e0 91 33 01 	lds	r30, 0x0133
    1842:	f0 91 34 01 	lds	r31, 0x0134
    1846:	30 97       	sbiw	r30, 0x00	; 0
    1848:	81 f0       	breq	.+32     	; 0x186a <__vector_18+0x44>
    184a:	90 91 2d 01 	lds	r25, 0x012D
    184e:	80 91 2f 01 	lds	r24, 0x012F
    1852:	98 17       	cp	r25, r24
    1854:	50 f4       	brcc	.+20     	; 0x186a <__vector_18+0x44>
    1856:	80 91 2d 01 	lds	r24, 0x012D
    185a:	e8 0f       	add	r30, r24
    185c:	f1 1d       	adc	r31, r1
    185e:	20 83       	st	Z, r18
    1860:	80 91 2d 01 	lds	r24, 0x012D
    1864:	8f 5f       	subi	r24, 0xFF	; 255
    1866:	80 93 2d 01 	sts	0x012D, r24
    186a:	90 91 2d 01 	lds	r25, 0x012D
    186e:	80 91 2f 01 	lds	r24, 0x012F
    1872:	98 17       	cp	r25, r24
    1874:	31 f4       	brne	.+12     	; 0x1882 <__vector_18+0x5c>
    1876:	80 91 30 01 	lds	r24, 0x0130
    187a:	88 23       	and	r24, r24
    187c:	11 f0       	breq	.+4      	; 0x1882 <__vector_18+0x5c>
    187e:	10 92 2d 01 	sts	0x012D, r1
    1882:	ff 91       	pop	r31
    1884:	ef 91       	pop	r30
    1886:	9f 91       	pop	r25
    1888:	8f 91       	pop	r24
    188a:	2f 91       	pop	r18
    188c:	0f 90       	pop	r0
    188e:	0f be       	out	0x3f, r0	; 63
    1890:	0f 90       	pop	r0
    1892:	1f 90       	pop	r1
    1894:	18 95       	reti

00001896 <__vector_19>:
    1896:	1f 92       	push	r1
    1898:	0f 92       	push	r0
    189a:	0f b6       	in	r0, 0x3f	; 63
    189c:	0f 92       	push	r0
    189e:	11 24       	eor	r1, r1
    18a0:	8f 93       	push	r24
    18a2:	9f 93       	push	r25
    18a4:	ef 93       	push	r30
    18a6:	ff 93       	push	r31
    18a8:	e0 91 31 01 	lds	r30, 0x0131
    18ac:	f0 91 32 01 	lds	r31, 0x0132
    18b0:	30 97       	sbiw	r30, 0x00	; 0
    18b2:	f9 f0       	breq	.+62     	; 0x18f2 <__vector_19+0x5c>
    18b4:	80 91 2c 01 	lds	r24, 0x012C
    18b8:	90 91 2e 01 	lds	r25, 0x012E
    18bc:	89 17       	cp	r24, r25
    18be:	38 f5       	brcc	.+78     	; 0x190e <__vector_19+0x78>
    18c0:	80 91 c0 00 	lds	r24, 0x00C0
    18c4:	85 ff       	sbrs	r24, 5
    18c6:	23 c0       	rjmp	.+70     	; 0x190e <__vector_19+0x78>
    18c8:	80 91 2c 01 	lds	r24, 0x012C
    18cc:	e8 0f       	add	r30, r24
    18ce:	f1 1d       	adc	r31, r1
    18d0:	80 81       	ld	r24, Z
    18d2:	80 93 c6 00 	sts	0x00C6, r24
    18d6:	80 91 2c 01 	lds	r24, 0x012C
    18da:	8f 5f       	subi	r24, 0xFF	; 255
    18dc:	80 93 2c 01 	sts	0x012C, r24
    18e0:	16 c0       	rjmp	.+44     	; 0x190e <__vector_19+0x78>
    18e2:	80 91 2b 01 	lds	r24, 0x012B
    18e6:	88 23       	and	r24, r24
    18e8:	21 f4       	brne	.+8      	; 0x18f2 <__vector_19+0x5c>
    18ea:	80 91 c1 00 	lds	r24, 0x00C1
    18ee:	80 62       	ori	r24, 0x20	; 32
    18f0:	03 c0       	rjmp	.+6      	; 0x18f8 <__vector_19+0x62>
    18f2:	80 91 c1 00 	lds	r24, 0x00C1
    18f6:	8f 7d       	andi	r24, 0xDF	; 223
    18f8:	80 93 c1 00 	sts	0x00C1, r24
    18fc:	ff 91       	pop	r31
    18fe:	ef 91       	pop	r30
    1900:	9f 91       	pop	r25
    1902:	8f 91       	pop	r24
    1904:	0f 90       	pop	r0
    1906:	0f be       	out	0x3f, r0	; 63
    1908:	0f 90       	pop	r0
    190a:	1f 90       	pop	r1
    190c:	18 95       	reti
    190e:	80 91 2c 01 	lds	r24, 0x012C
    1912:	89 17       	cp	r24, r25
    1914:	70 f7       	brcc	.-36     	; 0x18f2 <__vector_19+0x5c>
    1916:	e5 cf       	rjmp	.-54     	; 0x18e2 <__vector_19+0x4c>

00001918 <_ZN15OrangutanSerial15receiveBlockingEPchj>:
    1918:	af 92       	push	r10
    191a:	bf 92       	push	r11
    191c:	cf 92       	push	r12
    191e:	df 92       	push	r13
    1920:	ef 92       	push	r14
    1922:	ff 92       	push	r15
    1924:	0f 93       	push	r16
    1926:	1f 93       	push	r17
    1928:	8a 01       	movw	r16, r20
    192a:	20 91 c1 00 	lds	r18, 0x00C1
    192e:	2f 77       	andi	r18, 0x7F	; 127
    1930:	20 93 c1 00 	sts	0x00C1, r18
    1934:	90 93 34 01 	sts	0x0134, r25
    1938:	80 93 33 01 	sts	0x0133, r24
    193c:	10 92 2d 01 	sts	0x012D, r1
    1940:	60 93 2f 01 	sts	0x012F, r22
    1944:	10 92 30 01 	sts	0x0130, r1
    1948:	80 91 2b 01 	lds	r24, 0x012B
    194c:	88 23       	and	r24, r24
    194e:	29 f4       	brne	.+10     	; 0x195a <_ZN15OrangutanSerial15receiveBlockingEPchj+0x42>
    1950:	80 91 c1 00 	lds	r24, 0x00C1
    1954:	80 68       	ori	r24, 0x80	; 128
    1956:	80 93 c1 00 	sts	0x00C1, r24
    195a:	0e 94 72 0d 	call	0x1ae4	; 0x1ae4 <_ZN13OrangutanTime2msEv>
    195e:	5b 01       	movw	r10, r22
    1960:	6c 01       	movw	r12, r24
    1962:	78 01       	movw	r14, r16
    1964:	00 e0       	ldi	r16, 0x00	; 0
    1966:	10 e0       	ldi	r17, 0x00	; 0
    1968:	0e 94 75 0b 	call	0x16ea	; 0x16ea <_ZN15OrangutanSerial5checkEv>
    196c:	90 91 2d 01 	lds	r25, 0x012D
    1970:	80 91 2f 01 	lds	r24, 0x012F
    1974:	98 17       	cp	r25, r24
    1976:	11 f4       	brne	.+4      	; 0x197c <_ZN15OrangutanSerial15receiveBlockingEPchj+0x64>
    1978:	80 e0       	ldi	r24, 0x00	; 0
    197a:	0c c0       	rjmp	.+24     	; 0x1994 <_ZN15OrangutanSerial15receiveBlockingEPchj+0x7c>
    197c:	0e 94 72 0d 	call	0x1ae4	; 0x1ae4 <_ZN13OrangutanTime2msEv>
    1980:	6a 19       	sub	r22, r10
    1982:	7b 09       	sbc	r23, r11
    1984:	8c 09       	sbc	r24, r12
    1986:	9d 09       	sbc	r25, r13
    1988:	6e 15       	cp	r22, r14
    198a:	7f 05       	cpc	r23, r15
    198c:	80 07       	cpc	r24, r16
    198e:	91 07       	cpc	r25, r17
    1990:	58 f3       	brcs	.-42     	; 0x1968 <_ZN15OrangutanSerial15receiveBlockingEPchj+0x50>
    1992:	81 e0       	ldi	r24, 0x01	; 1
    1994:	1f 91       	pop	r17
    1996:	0f 91       	pop	r16
    1998:	ff 90       	pop	r15
    199a:	ef 90       	pop	r14
    199c:	df 90       	pop	r13
    199e:	cf 90       	pop	r12
    19a0:	bf 90       	pop	r11
    19a2:	af 90       	pop	r10
    19a4:	08 95       	ret

000019a6 <serial_receive_blocking>:
    19a6:	0e 94 8c 0c 	call	0x1918	; 0x1918 <_ZN15OrangutanSerial15receiveBlockingEPchj>
    19aa:	08 95       	ret

000019ac <__vector_9>:
    19ac:	2f 92       	push	r2
    19ae:	8f 93       	push	r24
    19b0:	9f 93       	push	r25
    19b2:	2f b6       	in	r2, 0x3f	; 63
    19b4:	80 91 36 01 	lds	r24, 0x0136
    19b8:	90 91 37 01 	lds	r25, 0x0137
    19bc:	01 96       	adiw	r24, 0x01	; 1
    19be:	80 93 36 01 	sts	0x0136, r24
    19c2:	90 93 37 01 	sts	0x0137, r25
    19c6:	90 e0       	ldi	r25, 0x00	; 0
    19c8:	80 91 38 01 	lds	r24, 0x0138
    19cc:	89 1f       	adc	r24, r25
    19ce:	80 93 38 01 	sts	0x0138, r24
    19d2:	90 91 3e 01 	lds	r25, 0x013E
    19d6:	9c 5f       	subi	r25, 0xFC	; 252
    19d8:	90 93 3e 01 	sts	0x013E, r25
    19dc:	80 91 3d 01 	lds	r24, 0x013D
    19e0:	80 51       	subi	r24, 0x10	; 16
    19e2:	97 42       	sbci	r25, 0x27	; 39
    19e4:	c0 f0       	brcs	.+48     	; 0x1a16 <end>
    19e6:	90 93 3e 01 	sts	0x013E, r25
    19ea:	80 93 3d 01 	sts	0x013D, r24
    19ee:	80 91 39 01 	lds	r24, 0x0139
    19f2:	90 91 3a 01 	lds	r25, 0x013A
    19f6:	01 96       	adiw	r24, 0x01	; 1
    19f8:	80 93 39 01 	sts	0x0139, r24
    19fc:	90 93 3a 01 	sts	0x013A, r25
    1a00:	90 e0       	ldi	r25, 0x00	; 0
    1a02:	80 91 3b 01 	lds	r24, 0x013B
    1a06:	89 1f       	adc	r24, r25
    1a08:	80 93 3b 01 	sts	0x013B, r24
    1a0c:	80 91 3c 01 	lds	r24, 0x013C
    1a10:	89 1f       	adc	r24, r25
    1a12:	80 93 3c 01 	sts	0x013C, r24

00001a16 <end>:
    1a16:	2f be       	out	0x3f, r2	; 63
    1a18:	9f 91       	pop	r25
    1a1a:	8f 91       	pop	r24
    1a1c:	2f 90       	pop	r2
    1a1e:	18 95       	reti

00001a20 <ticks_to_microseconds>:
    1a20:	6f 5f       	subi	r22, 0xFF	; 255
    1a22:	7f 4f       	sbci	r23, 0xFF	; 255
    1a24:	8f 4f       	sbci	r24, 0xFF	; 255
    1a26:	9f 4f       	sbci	r25, 0xFF	; 255
    1a28:	66 0f       	add	r22, r22
    1a2a:	77 1f       	adc	r23, r23
    1a2c:	88 1f       	adc	r24, r24
    1a2e:	99 1f       	adc	r25, r25
    1a30:	25 e0       	ldi	r18, 0x05	; 5
    1a32:	30 e0       	ldi	r19, 0x00	; 0
    1a34:	40 e0       	ldi	r20, 0x00	; 0
    1a36:	50 e0       	ldi	r21, 0x00	; 0
    1a38:	0e 94 cd 15 	call	0x2b9a	; 0x2b9a <__udivmodsi4>
    1a3c:	ca 01       	movw	r24, r20
    1a3e:	b9 01       	movw	r22, r18
    1a40:	08 95       	ret

00001a42 <delay_ms>:
    1a42:	28 ee       	ldi	r18, 0xE8	; 232
    1a44:	33 e0       	ldi	r19, 0x03	; 3
    1a46:	09 c0       	rjmp	.+18     	; 0x1a5a <delay_ms+0x18>
    1a48:	f9 01       	movw	r30, r18
    1a4a:	6f 93       	push	r22
    1a4c:	64 e0       	ldi	r22, 0x04	; 4
    1a4e:	6a 95       	dec	r22
    1a50:	f1 f7       	brne	.-4      	; 0x1a4e <delay_ms+0xc>
    1a52:	6f 91       	pop	r22
    1a54:	31 97       	sbiw	r30, 0x01	; 1
    1a56:	c9 f7       	brne	.-14     	; 0x1a4a <delay_ms+0x8>
    1a58:	01 97       	sbiw	r24, 0x01	; 1
    1a5a:	00 97       	sbiw	r24, 0x00	; 0
    1a5c:	a9 f7       	brne	.-22     	; 0x1a48 <delay_ms+0x6>
    1a5e:	08 95       	ret

00001a60 <_ZN13OrangutanTime19ticksToMicrosecondsEm>:
    1a60:	6f 5f       	subi	r22, 0xFF	; 255
    1a62:	7f 4f       	sbci	r23, 0xFF	; 255
    1a64:	8f 4f       	sbci	r24, 0xFF	; 255
    1a66:	9f 4f       	sbci	r25, 0xFF	; 255
    1a68:	66 0f       	add	r22, r22
    1a6a:	77 1f       	adc	r23, r23
    1a6c:	88 1f       	adc	r24, r24
    1a6e:	99 1f       	adc	r25, r25
    1a70:	25 e0       	ldi	r18, 0x05	; 5
    1a72:	30 e0       	ldi	r19, 0x00	; 0
    1a74:	40 e0       	ldi	r20, 0x00	; 0
    1a76:	50 e0       	ldi	r21, 0x00	; 0
    1a78:	0e 94 cd 15 	call	0x2b9a	; 0x2b9a <__udivmodsi4>
    1a7c:	ca 01       	movw	r24, r20
    1a7e:	b9 01       	movw	r22, r18
    1a80:	08 95       	ret

00001a82 <_ZN13OrangutanTime17delayMillisecondsEj>:
    1a82:	28 ee       	ldi	r18, 0xE8	; 232
    1a84:	33 e0       	ldi	r19, 0x03	; 3
    1a86:	09 c0       	rjmp	.+18     	; 0x1a9a <_ZN13OrangutanTime17delayMillisecondsEj+0x18>
    1a88:	f9 01       	movw	r30, r18
    1a8a:	6f 93       	push	r22
    1a8c:	64 e0       	ldi	r22, 0x04	; 4
    1a8e:	6a 95       	dec	r22
    1a90:	f1 f7       	brne	.-4      	; 0x1a8e <_ZN13OrangutanTime17delayMillisecondsEj+0xc>
    1a92:	6f 91       	pop	r22
    1a94:	31 97       	sbiw	r30, 0x01	; 1
    1a96:	c9 f7       	brne	.-14     	; 0x1a8a <_ZN13OrangutanTime17delayMillisecondsEj+0x8>
    1a98:	01 97       	sbiw	r24, 0x01	; 1
    1a9a:	00 97       	sbiw	r24, 0x00	; 0
    1a9c:	a9 f7       	brne	.-22     	; 0x1a88 <_ZN13OrangutanTime17delayMillisecondsEj+0x6>
    1a9e:	08 95       	ret

00001aa0 <_ZN13OrangutanTime5init2Ev>:
    1aa0:	a0 e7       	ldi	r26, 0x70	; 112
    1aa2:	b0 e0       	ldi	r27, 0x00	; 0
    1aa4:	8c 91       	ld	r24, X
    1aa6:	8e 7f       	andi	r24, 0xFE	; 254
    1aa8:	8c 93       	st	X, r24
    1aaa:	e0 eb       	ldi	r30, 0xB0	; 176
    1aac:	f0 e0       	ldi	r31, 0x00	; 0
    1aae:	80 81       	ld	r24, Z
    1ab0:	83 60       	ori	r24, 0x03	; 3
    1ab2:	80 83       	st	Z, r24
    1ab4:	e1 eb       	ldi	r30, 0xB1	; 177
    1ab6:	f0 e0       	ldi	r31, 0x00	; 0
    1ab8:	80 81       	ld	r24, Z
    1aba:	80 7f       	andi	r24, 0xF0	; 240
    1abc:	80 83       	st	Z, r24
    1abe:	80 81       	ld	r24, Z
    1ac0:	82 60       	ori	r24, 0x02	; 2
    1ac2:	80 83       	st	Z, r24
    1ac4:	b8 9a       	sbi	0x17, 0	; 23
    1ac6:	8c 91       	ld	r24, X
    1ac8:	81 60       	ori	r24, 0x01	; 1
    1aca:	8c 93       	st	X, r24
    1acc:	78 94       	sei
    1ace:	08 95       	ret

00001ad0 <_ZN13OrangutanTime4initEv>:
    1ad0:	80 91 3f 01 	lds	r24, 0x013F
    1ad4:	88 23       	and	r24, r24
    1ad6:	29 f4       	brne	.+10     	; 0x1ae2 <_ZN13OrangutanTime4initEv+0x12>
    1ad8:	81 e0       	ldi	r24, 0x01	; 1
    1ada:	80 93 3f 01 	sts	0x013F, r24
    1ade:	0e 94 50 0d 	call	0x1aa0	; 0x1aa0 <_ZN13OrangutanTime5init2Ev>
    1ae2:	08 95       	ret

00001ae4 <_ZN13OrangutanTime2msEv>:
    1ae4:	0e 94 68 0d 	call	0x1ad0	; 0x1ad0 <_ZN13OrangutanTime4initEv>
    1ae8:	e0 e7       	ldi	r30, 0x70	; 112
    1aea:	f0 e0       	ldi	r31, 0x00	; 0
    1aec:	80 81       	ld	r24, Z
    1aee:	8e 7f       	andi	r24, 0xFE	; 254
    1af0:	80 83       	st	Z, r24
    1af2:	20 91 39 01 	lds	r18, 0x0139
    1af6:	30 91 3a 01 	lds	r19, 0x013A
    1afa:	40 91 3b 01 	lds	r20, 0x013B
    1afe:	50 91 3c 01 	lds	r21, 0x013C
    1b02:	80 81       	ld	r24, Z
    1b04:	81 60       	ori	r24, 0x01	; 1
    1b06:	80 83       	st	Z, r24
    1b08:	b9 01       	movw	r22, r18
    1b0a:	ca 01       	movw	r24, r20
    1b0c:	08 95       	ret

00001b0e <get_ms>:
    1b0e:	0e 94 72 0d 	call	0x1ae4	; 0x1ae4 <_ZN13OrangutanTime2msEv>
    1b12:	08 95       	ret

00001b14 <_ZN13OrangutanTime5ticksEv>:
    1b14:	0e 94 68 0d 	call	0x1ad0	; 0x1ad0 <_ZN13OrangutanTime4initEv>
    1b18:	80 91 70 00 	lds	r24, 0x0070
    1b1c:	8e 7f       	andi	r24, 0xFE	; 254
    1b1e:	80 93 70 00 	sts	0x0070, r24
    1b22:	60 91 b2 00 	lds	r22, 0x00B2
    1b26:	80 91 35 01 	lds	r24, 0x0135
    1b2a:	90 91 36 01 	lds	r25, 0x0136
    1b2e:	a0 91 37 01 	lds	r26, 0x0137
    1b32:	b0 91 38 01 	lds	r27, 0x0138
    1b36:	b8 99       	sbic	0x17, 0	; 23
    1b38:	05 c0       	rjmp	.+10     	; 0x1b44 <_ZN13OrangutanTime5ticksEv+0x30>
    1b3a:	26 2f       	mov	r18, r22
    1b3c:	30 e0       	ldi	r19, 0x00	; 0
    1b3e:	40 e0       	ldi	r20, 0x00	; 0
    1b40:	50 e0       	ldi	r21, 0x00	; 0
    1b42:	11 c0       	rjmp	.+34     	; 0x1b66 <_ZN13OrangutanTime5ticksEv+0x52>
    1b44:	80 91 b2 00 	lds	r24, 0x00B2
    1b48:	20 91 35 01 	lds	r18, 0x0135
    1b4c:	30 91 36 01 	lds	r19, 0x0136
    1b50:	40 91 37 01 	lds	r20, 0x0137
    1b54:	50 91 38 01 	lds	r21, 0x0138
    1b58:	20 50       	subi	r18, 0x00	; 0
    1b5a:	3f 4f       	sbci	r19, 0xFF	; 255
    1b5c:	4f 4f       	sbci	r20, 0xFF	; 255
    1b5e:	5f 4f       	sbci	r21, 0xFF	; 255
    1b60:	90 e0       	ldi	r25, 0x00	; 0
    1b62:	a0 e0       	ldi	r26, 0x00	; 0
    1b64:	b0 e0       	ldi	r27, 0x00	; 0
    1b66:	28 2b       	or	r18, r24
    1b68:	39 2b       	or	r19, r25
    1b6a:	4a 2b       	or	r20, r26
    1b6c:	5b 2b       	or	r21, r27
    1b6e:	80 91 70 00 	lds	r24, 0x0070
    1b72:	81 60       	ori	r24, 0x01	; 1
    1b74:	80 93 70 00 	sts	0x0070, r24
    1b78:	b9 01       	movw	r22, r18
    1b7a:	ca 01       	movw	r24, r20
    1b7c:	08 95       	ret

00001b7e <get_ticks>:
    1b7e:	0e 94 8a 0d 	call	0x1b14	; 0x1b14 <_ZN13OrangutanTime5ticksEv>
    1b82:	08 95       	ret

00001b84 <_ZN13OrangutanTime5resetEv>:
    1b84:	0e 94 68 0d 	call	0x1ad0	; 0x1ad0 <_ZN13OrangutanTime4initEv>
    1b88:	e0 e7       	ldi	r30, 0x70	; 112
    1b8a:	f0 e0       	ldi	r31, 0x00	; 0
    1b8c:	80 81       	ld	r24, Z
    1b8e:	8e 7f       	andi	r24, 0xFE	; 254
    1b90:	80 83       	st	Z, r24
    1b92:	10 92 39 01 	sts	0x0139, r1
    1b96:	10 92 3a 01 	sts	0x013A, r1
    1b9a:	10 92 3b 01 	sts	0x013B, r1
    1b9e:	10 92 3c 01 	sts	0x013C, r1
    1ba2:	10 92 3e 01 	sts	0x013E, r1
    1ba6:	10 92 3d 01 	sts	0x013D, r1
    1baa:	80 81       	ld	r24, Z
    1bac:	81 60       	ori	r24, 0x01	; 1
    1bae:	80 83       	st	Z, r24
    1bb0:	08 95       	ret

00001bb2 <time_reset>:
    1bb2:	0e 94 c2 0d 	call	0x1b84	; 0x1b84 <_ZN13OrangutanTime5resetEv>
    1bb6:	08 95       	ret

00001bb8 <get_line_sensors_calibrated_minimum_on>:
    1bb8:	80 91 40 01 	lds	r24, 0x0140
    1bbc:	90 91 41 01 	lds	r25, 0x0141
    1bc0:	08 95       	ret

00001bc2 <get_line_sensors_calibrated_maximum_on>:
    1bc2:	80 91 42 01 	lds	r24, 0x0142
    1bc6:	90 91 43 01 	lds	r25, 0x0143
    1bca:	08 95       	ret

00001bcc <get_line_sensors_calibrated_minimum_off>:
    1bcc:	80 91 44 01 	lds	r24, 0x0144
    1bd0:	90 91 45 01 	lds	r25, 0x0145
    1bd4:	08 95       	ret

00001bd6 <get_line_sensors_calibrated_maximum_off>:
    1bd6:	80 91 46 01 	lds	r24, 0x0146
    1bda:	90 91 47 01 	lds	r25, 0x0147
    1bde:	08 95       	ret

00001be0 <_ZN9Pololu3pi33getLineSensorsCalibratedMinimumOnEv>:
    1be0:	80 91 40 01 	lds	r24, 0x0140
    1be4:	90 91 41 01 	lds	r25, 0x0141
    1be8:	08 95       	ret

00001bea <_ZN9Pololu3pi33getLineSensorsCalibratedMaximumOnEv>:
    1bea:	80 91 42 01 	lds	r24, 0x0142
    1bee:	90 91 43 01 	lds	r25, 0x0143
    1bf2:	08 95       	ret

00001bf4 <_ZN9Pololu3pi34getLineSensorsCalibratedMinimumOffEv>:
    1bf4:	80 91 44 01 	lds	r24, 0x0144
    1bf8:	90 91 45 01 	lds	r25, 0x0145
    1bfc:	08 95       	ret

00001bfe <_ZN9Pololu3pi34getLineSensorsCalibratedMaximumOffEv>:
    1bfe:	80 91 46 01 	lds	r24, 0x0146
    1c02:	90 91 47 01 	lds	r25, 0x0147
    1c06:	08 95       	ret

00001c08 <_GLOBAL__I_pololu_3pi_init>:
    1c08:	08 95       	ret

00001c0a <_GLOBAL__D_pololu_3pi_init>:
    1c0a:	80 e4       	ldi	r24, 0x40	; 64
    1c0c:	91 e0       	ldi	r25, 0x01	; 1
    1c0e:	0e 94 f7 13 	call	0x27ee	; 0x27ee <_ZN16PololuQTRSensorsD2Ev>
    1c12:	08 95       	ret

00001c14 <_ZN9Pololu3pi8readLineEPjhh>:
    1c14:	80 e4       	ldi	r24, 0x40	; 64
    1c16:	91 e0       	ldi	r25, 0x01	; 1
    1c18:	0e 94 1e 13 	call	0x263c	; 0x263c <_ZN16PololuQTRSensors8readLineEPjhh>
    1c1c:	08 95       	ret

00001c1e <read_line_white>:
    1c1e:	9c 01       	movw	r18, r24
    1c20:	46 2f       	mov	r20, r22
    1c22:	80 e4       	ldi	r24, 0x40	; 64
    1c24:	91 e0       	ldi	r25, 0x01	; 1
    1c26:	b9 01       	movw	r22, r18
    1c28:	21 e0       	ldi	r18, 0x01	; 1
    1c2a:	0e 94 1e 13 	call	0x263c	; 0x263c <_ZN16PololuQTRSensors8readLineEPjhh>
    1c2e:	08 95       	ret

00001c30 <read_line>:
    1c30:	9c 01       	movw	r18, r24
    1c32:	46 2f       	mov	r20, r22
    1c34:	80 e4       	ldi	r24, 0x40	; 64
    1c36:	91 e0       	ldi	r25, 0x01	; 1
    1c38:	b9 01       	movw	r22, r18
    1c3a:	20 e0       	ldi	r18, 0x00	; 0
    1c3c:	0e 94 1e 13 	call	0x263c	; 0x263c <_ZN16PololuQTRSensors8readLineEPjhh>
    1c40:	08 95       	ret

00001c42 <_ZN9Pololu3pi25readLineSensorsCalibratedEPjh>:
    1c42:	80 e4       	ldi	r24, 0x40	; 64
    1c44:	91 e0       	ldi	r25, 0x01	; 1
    1c46:	0e 94 61 12 	call	0x24c2	; 0x24c2 <_ZN16PololuQTRSensors14readCalibratedEPjh>
    1c4a:	08 95       	ret

00001c4c <read_line_sensors_calibrated>:
    1c4c:	9c 01       	movw	r18, r24
    1c4e:	46 2f       	mov	r20, r22
    1c50:	80 e4       	ldi	r24, 0x40	; 64
    1c52:	91 e0       	ldi	r25, 0x01	; 1
    1c54:	b9 01       	movw	r22, r18
    1c56:	0e 94 61 12 	call	0x24c2	; 0x24c2 <_ZN16PololuQTRSensors14readCalibratedEPjh>
    1c5a:	08 95       	ret

00001c5c <_ZN9Pololu3pi20calibrateLineSensorsEh>:
    1c5c:	80 e4       	ldi	r24, 0x40	; 64
    1c5e:	91 e0       	ldi	r25, 0x01	; 1
    1c60:	0e 94 17 15 	call	0x2a2e	; 0x2a2e <_ZN16PololuQTRSensors9calibrateEh>
    1c64:	08 95       	ret

00001c66 <calibrate_line_sensors>:
    1c66:	68 2f       	mov	r22, r24
    1c68:	80 e4       	ldi	r24, 0x40	; 64
    1c6a:	91 e0       	ldi	r25, 0x01	; 1
    1c6c:	0e 94 17 15 	call	0x2a2e	; 0x2a2e <_ZN16PololuQTRSensors9calibrateEh>
    1c70:	08 95       	ret

00001c72 <_ZN9Pololu3pi11emittersOffEv>:
    1c72:	80 e4       	ldi	r24, 0x40	; 64
    1c74:	91 e0       	ldi	r25, 0x01	; 1
    1c76:	0e 94 3a 0f 	call	0x1e74	; 0x1e74 <_ZN16PololuQTRSensors11emittersOffEv>
    1c7a:	08 95       	ret

00001c7c <emitters_off>:
    1c7c:	80 e4       	ldi	r24, 0x40	; 64
    1c7e:	91 e0       	ldi	r25, 0x01	; 1
    1c80:	0e 94 3a 0f 	call	0x1e74	; 0x1e74 <_ZN16PololuQTRSensors11emittersOffEv>
    1c84:	08 95       	ret

00001c86 <_ZN9Pololu3pi10emittersOnEv>:
    1c86:	80 e4       	ldi	r24, 0x40	; 64
    1c88:	91 e0       	ldi	r25, 0x01	; 1
    1c8a:	0e 94 52 0f 	call	0x1ea4	; 0x1ea4 <_ZN16PololuQTRSensors10emittersOnEv>
    1c8e:	08 95       	ret

00001c90 <emitters_on>:
    1c90:	80 e4       	ldi	r24, 0x40	; 64
    1c92:	91 e0       	ldi	r25, 0x01	; 1
    1c94:	0e 94 52 0f 	call	0x1ea4	; 0x1ea4 <_ZN16PololuQTRSensors10emittersOnEv>
    1c98:	08 95       	ret

00001c9a <_ZN9Pololu3pi15readLineSensorsEPjh>:
    1c9a:	9c 01       	movw	r18, r24
    1c9c:	46 2f       	mov	r20, r22
    1c9e:	80 e4       	ldi	r24, 0x40	; 64
    1ca0:	91 e0       	ldi	r25, 0x01	; 1
    1ca2:	b9 01       	movw	r22, r18
    1ca4:	0e 94 c2 11 	call	0x2384	; 0x2384 <_ZN16PololuQTRSensors4readEPjh>
    1ca8:	08 95       	ret

00001caa <read_line_sensors>:
    1caa:	9c 01       	movw	r18, r24
    1cac:	46 2f       	mov	r20, r22
    1cae:	80 e4       	ldi	r24, 0x40	; 64
    1cb0:	91 e0       	ldi	r25, 0x01	; 1
    1cb2:	b9 01       	movw	r22, r18
    1cb4:	0e 94 c2 11 	call	0x2384	; 0x2384 <_ZN16PololuQTRSensors4readEPjh>
    1cb8:	08 95       	ret

00001cba <_ZN9Pololu3pi4initEjh>:
    1cba:	0f 93       	push	r16
    1cbc:	df 93       	push	r29
    1cbe:	cf 93       	push	r28
    1cc0:	00 d0       	rcall	.+0      	; 0x1cc2 <_ZN9Pololu3pi4initEjh+0x8>
    1cc2:	00 d0       	rcall	.+0      	; 0x1cc4 <_ZN9Pololu3pi4initEjh+0xa>
    1cc4:	0f 92       	push	r0
    1cc6:	cd b7       	in	r28, 0x3d	; 61
    1cc8:	de b7       	in	r29, 0x3e	; 62
    1cca:	9c 01       	movw	r18, r24
    1ccc:	96 2f       	mov	r25, r22
    1cce:	de 01       	movw	r26, r28
    1cd0:	11 96       	adiw	r26, 0x01	; 1
    1cd2:	e3 e1       	ldi	r30, 0x13	; 19
    1cd4:	f1 e0       	ldi	r31, 0x01	; 1
    1cd6:	85 e0       	ldi	r24, 0x05	; 5
    1cd8:	01 90       	ld	r0, Z+
    1cda:	0d 92       	st	X+, r0
    1cdc:	81 50       	subi	r24, 0x01	; 1
    1cde:	e1 f7       	brne	.-8      	; 0x1cd8 <_ZN9Pololu3pi4initEjh+0x1e>
    1ce0:	be 01       	movw	r22, r28
    1ce2:	6f 5f       	subi	r22, 0xFF	; 255
    1ce4:	7f 4f       	sbci	r23, 0xFF	; 255
    1ce6:	99 23       	and	r25, r25
    1ce8:	29 f0       	breq	.+10     	; 0x1cf4 <_ZN9Pololu3pi4initEjh+0x3a>
    1cea:	80 e4       	ldi	r24, 0x40	; 64
    1cec:	91 e0       	ldi	r25, 0x01	; 1
    1cee:	45 e0       	ldi	r20, 0x05	; 5
    1cf0:	0f ef       	ldi	r16, 0xFF	; 255
    1cf2:	04 c0       	rjmp	.+8      	; 0x1cfc <_ZN9Pololu3pi4initEjh+0x42>
    1cf4:	80 e4       	ldi	r24, 0x40	; 64
    1cf6:	91 e0       	ldi	r25, 0x01	; 1
    1cf8:	45 e0       	ldi	r20, 0x05	; 5
    1cfa:	03 e1       	ldi	r16, 0x13	; 19
    1cfc:	0e 94 ba 0f 	call	0x1f74	; 0x1f74 <_ZN18PololuQTRSensorsRC4initEPhhjh>
    1d00:	80 e4       	ldi	r24, 0x40	; 64
    1d02:	91 e0       	ldi	r25, 0x01	; 1
    1d04:	0e 94 3a 0f 	call	0x1e74	; 0x1e74 <_ZN16PololuQTRSensors11emittersOffEv>
    1d08:	0e 94 c2 0d 	call	0x1b84	; 0x1b84 <_ZN13OrangutanTime5resetEv>
    1d0c:	0f 90       	pop	r0
    1d0e:	0f 90       	pop	r0
    1d10:	0f 90       	pop	r0
    1d12:	0f 90       	pop	r0
    1d14:	0f 90       	pop	r0
    1d16:	cf 91       	pop	r28
    1d18:	df 91       	pop	r29
    1d1a:	0f 91       	pop	r16
    1d1c:	08 95       	ret

00001d1e <pololu_3pi_init_disable_emitter_pin>:
    1d1e:	61 e0       	ldi	r22, 0x01	; 1
    1d20:	0e 94 5d 0e 	call	0x1cba	; 0x1cba <_ZN9Pololu3pi4initEjh>
    1d24:	08 95       	ret

00001d26 <pololu_3pi_init>:
    1d26:	60 e0       	ldi	r22, 0x00	; 0
    1d28:	0e 94 5d 0e 	call	0x1cba	; 0x1cba <_ZN9Pololu3pi4initEjh>
    1d2c:	08 95       	ret

00001d2e <line_sensors_reset_calibration>:
    1d2e:	80 e4       	ldi	r24, 0x40	; 64
    1d30:	91 e0       	ldi	r25, 0x01	; 1
    1d32:	0e 94 69 0f 	call	0x1ed2	; 0x1ed2 <_ZN16PololuQTRSensors16resetCalibrationEv>
    1d36:	08 95       	ret

00001d38 <qtr_emitters_on>:
    1d38:	a0 91 86 01 	lds	r26, 0x0186
    1d3c:	b0 91 87 01 	lds	r27, 0x0187
    1d40:	1c 96       	adiw	r26, 0x0c	; 12
    1d42:	ed 91       	ld	r30, X+
    1d44:	fc 91       	ld	r31, X
    1d46:	1d 97       	sbiw	r26, 0x0d	; 13
    1d48:	30 97       	sbiw	r30, 0x00	; 0
    1d4a:	79 f0       	breq	.+30     	; 0x1d6a <qtr_emitters_on+0x32>
    1d4c:	80 81       	ld	r24, Z
    1d4e:	19 96       	adiw	r26, 0x09	; 9
    1d50:	9c 91       	ld	r25, X
    1d52:	19 97       	sbiw	r26, 0x09	; 9
    1d54:	89 2b       	or	r24, r25
    1d56:	80 83       	st	Z, r24
    1d58:	1a 96       	adiw	r26, 0x0a	; 10
    1d5a:	ed 91       	ld	r30, X+
    1d5c:	fc 91       	ld	r31, X
    1d5e:	1b 97       	sbiw	r26, 0x0b	; 11
    1d60:	80 81       	ld	r24, Z
    1d62:	19 96       	adiw	r26, 0x09	; 9
    1d64:	9c 91       	ld	r25, X
    1d66:	89 2b       	or	r24, r25
    1d68:	80 83       	st	Z, r24
    1d6a:	08 95       	ret

00001d6c <qtr_emitters_off>:
    1d6c:	a0 91 86 01 	lds	r26, 0x0186
    1d70:	b0 91 87 01 	lds	r27, 0x0187
    1d74:	1c 96       	adiw	r26, 0x0c	; 12
    1d76:	ed 91       	ld	r30, X+
    1d78:	fc 91       	ld	r31, X
    1d7a:	1d 97       	sbiw	r26, 0x0d	; 13
    1d7c:	30 97       	sbiw	r30, 0x00	; 0
    1d7e:	81 f0       	breq	.+32     	; 0x1da0 <qtr_emitters_off+0x34>
    1d80:	80 81       	ld	r24, Z
    1d82:	19 96       	adiw	r26, 0x09	; 9
    1d84:	9c 91       	ld	r25, X
    1d86:	19 97       	sbiw	r26, 0x09	; 9
    1d88:	89 2b       	or	r24, r25
    1d8a:	80 83       	st	Z, r24
    1d8c:	1a 96       	adiw	r26, 0x0a	; 10
    1d8e:	ed 91       	ld	r30, X+
    1d90:	fc 91       	ld	r31, X
    1d92:	1b 97       	sbiw	r26, 0x0b	; 11
    1d94:	90 81       	ld	r25, Z
    1d96:	19 96       	adiw	r26, 0x09	; 9
    1d98:	8c 91       	ld	r24, X
    1d9a:	80 95       	com	r24
    1d9c:	89 23       	and	r24, r25
    1d9e:	80 83       	st	Z, r24
    1da0:	08 95       	ret

00001da2 <qtr_calibrated_minimum_on>:
    1da2:	e0 91 86 01 	lds	r30, 0x0186
    1da6:	f0 91 87 01 	lds	r31, 0x0187
    1daa:	80 81       	ld	r24, Z
    1dac:	91 81       	ldd	r25, Z+1	; 0x01
    1dae:	08 95       	ret

00001db0 <qtr_calibrated_maximum_on>:
    1db0:	e0 91 86 01 	lds	r30, 0x0186
    1db4:	f0 91 87 01 	lds	r31, 0x0187
    1db8:	82 81       	ldd	r24, Z+2	; 0x02
    1dba:	93 81       	ldd	r25, Z+3	; 0x03
    1dbc:	08 95       	ret

00001dbe <qtr_calibrated_minimum_off>:
    1dbe:	e0 91 86 01 	lds	r30, 0x0186
    1dc2:	f0 91 87 01 	lds	r31, 0x0187
    1dc6:	84 81       	ldd	r24, Z+4	; 0x04
    1dc8:	95 81       	ldd	r25, Z+5	; 0x05
    1dca:	08 95       	ret

00001dcc <qtr_calibrated_maximum_off>:
    1dcc:	e0 91 86 01 	lds	r30, 0x0186
    1dd0:	f0 91 87 01 	lds	r31, 0x0187
    1dd4:	86 81       	ldd	r24, Z+6	; 0x06
    1dd6:	97 81       	ldd	r25, Z+7	; 0x07
    1dd8:	08 95       	ret

00001dda <_ZN16PololuQTRSensors4initEhhh>:
    1dda:	fc 01       	movw	r30, r24
    1ddc:	11 82       	std	Z+1, r1	; 0x01
    1dde:	10 82       	st	Z, r1
    1de0:	13 82       	std	Z+3, r1	; 0x03
    1de2:	12 82       	std	Z+2, r1	; 0x02
    1de4:	15 82       	std	Z+5, r1	; 0x05
    1de6:	14 82       	std	Z+4, r1	; 0x04
    1de8:	17 82       	std	Z+7, r1	; 0x07
    1dea:	16 82       	std	Z+6, r1	; 0x06
    1dec:	61 31       	cpi	r22, 0x11	; 17
    1dee:	18 f0       	brcs	.+6      	; 0x1df6 <_ZN16PololuQTRSensors4initEhhh+0x1c>
    1df0:	80 e1       	ldi	r24, 0x10	; 16
    1df2:	80 87       	std	Z+8, r24	; 0x08
    1df4:	01 c0       	rjmp	.+2      	; 0x1df8 <_ZN16PololuQTRSensors4initEhhh+0x1e>
    1df6:	60 87       	std	Z+8, r22	; 0x08
    1df8:	20 8b       	std	Z+16, r18	; 0x10
    1dfa:	48 30       	cpi	r20, 0x08	; 8
    1dfc:	60 f4       	brcc	.+24     	; 0x1e16 <_ZN16PololuQTRSensors4initEhhh+0x3c>
    1dfe:	81 e0       	ldi	r24, 0x01	; 1
    1e00:	90 e0       	ldi	r25, 0x00	; 0
    1e02:	02 c0       	rjmp	.+4      	; 0x1e08 <_ZN16PololuQTRSensors4initEhhh+0x2e>
    1e04:	88 0f       	add	r24, r24
    1e06:	99 1f       	adc	r25, r25
    1e08:	4a 95       	dec	r20
    1e0a:	e2 f7       	brpl	.-8      	; 0x1e04 <_ZN16PololuQTRSensors4initEhhh+0x2a>
    1e0c:	4a e2       	ldi	r20, 0x2A	; 42
    1e0e:	50 e0       	ldi	r21, 0x00	; 0
    1e10:	2b e2       	ldi	r18, 0x2B	; 43
    1e12:	30 e0       	ldi	r19, 0x00	; 0
    1e14:	29 c0       	rjmp	.+82     	; 0x1e68 <_ZN16PololuQTRSensors4initEhhh+0x8e>
    1e16:	4e 30       	cpi	r20, 0x0E	; 14
    1e18:	80 f4       	brcc	.+32     	; 0x1e3a <_ZN16PololuQTRSensors4initEhhh+0x60>
    1e1a:	24 2f       	mov	r18, r20
    1e1c:	30 e0       	ldi	r19, 0x00	; 0
    1e1e:	28 50       	subi	r18, 0x08	; 8
    1e20:	30 40       	sbci	r19, 0x00	; 0
    1e22:	81 e0       	ldi	r24, 0x01	; 1
    1e24:	90 e0       	ldi	r25, 0x00	; 0
    1e26:	02 c0       	rjmp	.+4      	; 0x1e2c <_ZN16PololuQTRSensors4initEhhh+0x52>
    1e28:	88 0f       	add	r24, r24
    1e2a:	99 1f       	adc	r25, r25
    1e2c:	2a 95       	dec	r18
    1e2e:	e2 f7       	brpl	.-8      	; 0x1e28 <_ZN16PololuQTRSensors4initEhhh+0x4e>
    1e30:	44 e2       	ldi	r20, 0x24	; 36
    1e32:	50 e0       	ldi	r21, 0x00	; 0
    1e34:	25 e2       	ldi	r18, 0x25	; 37
    1e36:	30 e0       	ldi	r19, 0x00	; 0
    1e38:	17 c0       	rjmp	.+46     	; 0x1e68 <_ZN16PololuQTRSensors4initEhhh+0x8e>
    1e3a:	45 31       	cpi	r20, 0x15	; 21
    1e3c:	30 f0       	brcs	.+12     	; 0x1e4a <_ZN16PololuQTRSensors4initEhhh+0x70>
    1e3e:	80 e0       	ldi	r24, 0x00	; 0
    1e40:	40 e0       	ldi	r20, 0x00	; 0
    1e42:	50 e0       	ldi	r21, 0x00	; 0
    1e44:	20 e0       	ldi	r18, 0x00	; 0
    1e46:	30 e0       	ldi	r19, 0x00	; 0
    1e48:	0f c0       	rjmp	.+30     	; 0x1e68 <_ZN16PololuQTRSensors4initEhhh+0x8e>
    1e4a:	24 2f       	mov	r18, r20
    1e4c:	30 e0       	ldi	r19, 0x00	; 0
    1e4e:	2e 50       	subi	r18, 0x0E	; 14
    1e50:	30 40       	sbci	r19, 0x00	; 0
    1e52:	81 e0       	ldi	r24, 0x01	; 1
    1e54:	90 e0       	ldi	r25, 0x00	; 0
    1e56:	02 c0       	rjmp	.+4      	; 0x1e5c <_ZN16PololuQTRSensors4initEhhh+0x82>
    1e58:	88 0f       	add	r24, r24
    1e5a:	99 1f       	adc	r25, r25
    1e5c:	2a 95       	dec	r18
    1e5e:	e2 f7       	brpl	.-8      	; 0x1e58 <_ZN16PololuQTRSensors4initEhhh+0x7e>
    1e60:	47 e2       	ldi	r20, 0x27	; 39
    1e62:	50 e0       	ldi	r21, 0x00	; 0
    1e64:	28 e2       	ldi	r18, 0x28	; 40
    1e66:	30 e0       	ldi	r19, 0x00	; 0
    1e68:	81 87       	std	Z+9, r24	; 0x09
    1e6a:	33 87       	std	Z+11, r19	; 0x0b
    1e6c:	22 87       	std	Z+10, r18	; 0x0a
    1e6e:	55 87       	std	Z+13, r21	; 0x0d
    1e70:	44 87       	std	Z+12, r20	; 0x0c
    1e72:	08 95       	ret

00001e74 <_ZN16PololuQTRSensors11emittersOffEv>:
    1e74:	dc 01       	movw	r26, r24
    1e76:	1c 96       	adiw	r26, 0x0c	; 12
    1e78:	ed 91       	ld	r30, X+
    1e7a:	fc 91       	ld	r31, X
    1e7c:	1d 97       	sbiw	r26, 0x0d	; 13
    1e7e:	30 97       	sbiw	r30, 0x00	; 0
    1e80:	81 f0       	breq	.+32     	; 0x1ea2 <_ZN16PololuQTRSensors11emittersOffEv+0x2e>
    1e82:	80 81       	ld	r24, Z
    1e84:	19 96       	adiw	r26, 0x09	; 9
    1e86:	9c 91       	ld	r25, X
    1e88:	19 97       	sbiw	r26, 0x09	; 9
    1e8a:	89 2b       	or	r24, r25
    1e8c:	80 83       	st	Z, r24
    1e8e:	1a 96       	adiw	r26, 0x0a	; 10
    1e90:	ed 91       	ld	r30, X+
    1e92:	fc 91       	ld	r31, X
    1e94:	1b 97       	sbiw	r26, 0x0b	; 11
    1e96:	90 81       	ld	r25, Z
    1e98:	19 96       	adiw	r26, 0x09	; 9
    1e9a:	8c 91       	ld	r24, X
    1e9c:	80 95       	com	r24
    1e9e:	89 23       	and	r24, r25
    1ea0:	80 83       	st	Z, r24
    1ea2:	08 95       	ret

00001ea4 <_ZN16PololuQTRSensors10emittersOnEv>:
    1ea4:	dc 01       	movw	r26, r24
    1ea6:	1c 96       	adiw	r26, 0x0c	; 12
    1ea8:	ed 91       	ld	r30, X+
    1eaa:	fc 91       	ld	r31, X
    1eac:	1d 97       	sbiw	r26, 0x0d	; 13
    1eae:	30 97       	sbiw	r30, 0x00	; 0
    1eb0:	79 f0       	breq	.+30     	; 0x1ed0 <_ZN16PololuQTRSensors10emittersOnEv+0x2c>
    1eb2:	80 81       	ld	r24, Z
    1eb4:	19 96       	adiw	r26, 0x09	; 9
    1eb6:	9c 91       	ld	r25, X
    1eb8:	19 97       	sbiw	r26, 0x09	; 9
    1eba:	89 2b       	or	r24, r25
    1ebc:	80 83       	st	Z, r24
    1ebe:	1a 96       	adiw	r26, 0x0a	; 10
    1ec0:	ed 91       	ld	r30, X+
    1ec2:	fc 91       	ld	r31, X
    1ec4:	1b 97       	sbiw	r26, 0x0b	; 11
    1ec6:	80 81       	ld	r24, Z
    1ec8:	19 96       	adiw	r26, 0x09	; 9
    1eca:	9c 91       	ld	r25, X
    1ecc:	89 2b       	or	r24, r25
    1ece:	80 83       	st	Z, r24
    1ed0:	08 95       	ret

00001ed2 <_ZN16PololuQTRSensors16resetCalibrationEv>:
    1ed2:	dc 01       	movw	r26, r24
    1ed4:	20 e0       	ldi	r18, 0x00	; 0
    1ed6:	40 c0       	rjmp	.+128    	; 0x1f58 <_ZN16PololuQTRSensors16resetCalibrationEv+0x86>
    1ed8:	ed 91       	ld	r30, X+
    1eda:	fc 91       	ld	r31, X
    1edc:	11 97       	sbiw	r26, 0x01	; 1
    1ede:	30 97       	sbiw	r30, 0x00	; 0
    1ee0:	61 f0       	breq	.+24     	; 0x1efa <_ZN16PololuQTRSensors16resetCalibrationEv+0x28>
    1ee2:	82 2f       	mov	r24, r18
    1ee4:	90 e0       	ldi	r25, 0x00	; 0
    1ee6:	88 0f       	add	r24, r24
    1ee8:	99 1f       	adc	r25, r25
    1eea:	e8 0f       	add	r30, r24
    1eec:	f9 1f       	adc	r31, r25
    1eee:	1e 96       	adiw	r26, 0x0e	; 14
    1ef0:	8d 91       	ld	r24, X+
    1ef2:	9c 91       	ld	r25, X
    1ef4:	1f 97       	sbiw	r26, 0x0f	; 15
    1ef6:	91 83       	std	Z+1, r25	; 0x01
    1ef8:	80 83       	st	Z, r24
    1efa:	14 96       	adiw	r26, 0x04	; 4
    1efc:	ed 91       	ld	r30, X+
    1efe:	fc 91       	ld	r31, X
    1f00:	15 97       	sbiw	r26, 0x05	; 5
    1f02:	30 97       	sbiw	r30, 0x00	; 0
    1f04:	61 f0       	breq	.+24     	; 0x1f1e <_ZN16PololuQTRSensors16resetCalibrationEv+0x4c>
    1f06:	82 2f       	mov	r24, r18
    1f08:	90 e0       	ldi	r25, 0x00	; 0
    1f0a:	88 0f       	add	r24, r24
    1f0c:	99 1f       	adc	r25, r25
    1f0e:	e8 0f       	add	r30, r24
    1f10:	f9 1f       	adc	r31, r25
    1f12:	1e 96       	adiw	r26, 0x0e	; 14
    1f14:	8d 91       	ld	r24, X+
    1f16:	9c 91       	ld	r25, X
    1f18:	1f 97       	sbiw	r26, 0x0f	; 15
    1f1a:	91 83       	std	Z+1, r25	; 0x01
    1f1c:	80 83       	st	Z, r24
    1f1e:	12 96       	adiw	r26, 0x02	; 2
    1f20:	ed 91       	ld	r30, X+
    1f22:	fc 91       	ld	r31, X
    1f24:	13 97       	sbiw	r26, 0x03	; 3
    1f26:	30 97       	sbiw	r30, 0x00	; 0
    1f28:	41 f0       	breq	.+16     	; 0x1f3a <_ZN16PololuQTRSensors16resetCalibrationEv+0x68>
    1f2a:	82 2f       	mov	r24, r18
    1f2c:	90 e0       	ldi	r25, 0x00	; 0
    1f2e:	88 0f       	add	r24, r24
    1f30:	99 1f       	adc	r25, r25
    1f32:	e8 0f       	add	r30, r24
    1f34:	f9 1f       	adc	r31, r25
    1f36:	11 82       	std	Z+1, r1	; 0x01
    1f38:	10 82       	st	Z, r1
    1f3a:	16 96       	adiw	r26, 0x06	; 6
    1f3c:	ed 91       	ld	r30, X+
    1f3e:	fc 91       	ld	r31, X
    1f40:	17 97       	sbiw	r26, 0x07	; 7
    1f42:	30 97       	sbiw	r30, 0x00	; 0
    1f44:	41 f0       	breq	.+16     	; 0x1f56 <_ZN16PololuQTRSensors16resetCalibrationEv+0x84>
    1f46:	82 2f       	mov	r24, r18
    1f48:	90 e0       	ldi	r25, 0x00	; 0
    1f4a:	88 0f       	add	r24, r24
    1f4c:	99 1f       	adc	r25, r25
    1f4e:	e8 0f       	add	r30, r24
    1f50:	f9 1f       	adc	r31, r25
    1f52:	11 82       	std	Z+1, r1	; 0x01
    1f54:	10 82       	st	Z, r1
    1f56:	2f 5f       	subi	r18, 0xFF	; 255
    1f58:	18 96       	adiw	r26, 0x08	; 8
    1f5a:	8c 91       	ld	r24, X
    1f5c:	18 97       	sbiw	r26, 0x08	; 8
    1f5e:	28 17       	cp	r18, r24
    1f60:	08 f4       	brcc	.+2      	; 0x1f64 <_ZN16PololuQTRSensors16resetCalibrationEv+0x92>
    1f62:	ba cf       	rjmp	.-140    	; 0x1ed8 <_ZN16PololuQTRSensors16resetCalibrationEv+0x6>
    1f64:	08 95       	ret

00001f66 <qtr_reset_calibration>:
    1f66:	80 91 86 01 	lds	r24, 0x0186
    1f6a:	90 91 87 01 	lds	r25, 0x0187
    1f6e:	0e 94 69 0f 	call	0x1ed2	; 0x1ed2 <_ZN16PololuQTRSensors16resetCalibrationEv>
    1f72:	08 95       	ret

00001f74 <_ZN18PololuQTRSensorsRC4initEPhhjh>:
    1f74:	a0 e0       	ldi	r26, 0x00	; 0
    1f76:	b0 e0       	ldi	r27, 0x00	; 0
    1f78:	e0 ec       	ldi	r30, 0xC0	; 192
    1f7a:	ff e0       	ldi	r31, 0x0F	; 15
    1f7c:	0c 94 12 16 	jmp	0x2c24	; 0x2c24 <__prologue_saves__+0x10>
    1f80:	ec 01       	movw	r28, r24
    1f82:	5b 01       	movw	r10, r22
    1f84:	64 2f       	mov	r22, r20
    1f86:	79 01       	movw	r14, r18
    1f88:	40 2f       	mov	r20, r16
    1f8a:	20 e0       	ldi	r18, 0x00	; 0
    1f8c:	0e 94 ed 0e 	call	0x1dda	; 0x1dda <_ZN16PololuQTRSensors4initEhhh>
    1f90:	ce 01       	movw	r24, r28
    1f92:	8f 5b       	subi	r24, 0xBF	; 191
    1f94:	9f 4f       	sbci	r25, 0xFF	; 255
    1f96:	fc 01       	movw	r30, r24
    1f98:	10 82       	st	Z, r1
    1f9a:	de 01       	movw	r26, r28
    1f9c:	ae 5b       	subi	r26, 0xBE	; 190
    1f9e:	bf 4f       	sbci	r27, 0xFF	; 255
    1fa0:	1c 92       	st	X, r1
    1fa2:	fe 01       	movw	r30, r28
    1fa4:	ed 5b       	subi	r30, 0xBD	; 189
    1fa6:	ff 4f       	sbci	r31, 0xFF	; 255
    1fa8:	10 82       	st	Z, r1
    1faa:	ff 86       	std	Y+15, r15	; 0x0f
    1fac:	ee 86       	std	Y+14, r14	; 0x0e
    1fae:	40 e0       	ldi	r20, 0x00	; 0
    1fb0:	61 e0       	ldi	r22, 0x01	; 1
    1fb2:	70 e0       	ldi	r23, 0x00	; 0
    1fb4:	6f 01       	movw	r12, r30
    1fb6:	7d 01       	movw	r14, r26
    1fb8:	8c 01       	movw	r16, r24
    1fba:	4e c0       	rjmp	.+156    	; 0x2058 <_ZN18PololuQTRSensorsRC4initEPhhjh+0xe4>
    1fbc:	f5 01       	movw	r30, r10
    1fbe:	e4 0f       	add	r30, r20
    1fc0:	f1 1d       	adc	r31, r1
    1fc2:	80 81       	ld	r24, Z
    1fc4:	88 30       	cpi	r24, 0x08	; 8
    1fc6:	50 f4       	brcc	.+20     	; 0x1fdc <_ZN18PololuQTRSensorsRC4initEPhhjh+0x68>
    1fc8:	9b 01       	movw	r18, r22
    1fca:	02 c0       	rjmp	.+4      	; 0x1fd0 <_ZN18PololuQTRSensorsRC4initEPhhjh+0x5c>
    1fcc:	22 0f       	add	r18, r18
    1fce:	33 1f       	adc	r19, r19
    1fd0:	8a 95       	dec	r24
    1fd2:	e2 f7       	brpl	.-8      	; 0x1fcc <_ZN18PololuQTRSensorsRC4initEPhhjh+0x58>
    1fd4:	92 2f       	mov	r25, r18
    1fd6:	29 e2       	ldi	r18, 0x29	; 41
    1fd8:	30 e0       	ldi	r19, 0x00	; 0
    1fda:	1f c0       	rjmp	.+62     	; 0x201a <_ZN18PololuQTRSensorsRC4initEPhhjh+0xa6>
    1fdc:	8e 30       	cpi	r24, 0x0E	; 14
    1fde:	60 f4       	brcc	.+24     	; 0x1ff8 <_ZN18PololuQTRSensorsRC4initEPhhjh+0x84>
    1fe0:	90 e0       	ldi	r25, 0x00	; 0
    1fe2:	08 97       	sbiw	r24, 0x08	; 8
    1fe4:	fb 01       	movw	r30, r22
    1fe6:	02 c0       	rjmp	.+4      	; 0x1fec <_ZN18PololuQTRSensorsRC4initEPhhjh+0x78>
    1fe8:	ee 0f       	add	r30, r30
    1fea:	ff 1f       	adc	r31, r31
    1fec:	8a 95       	dec	r24
    1fee:	e2 f7       	brpl	.-8      	; 0x1fe8 <_ZN18PololuQTRSensorsRC4initEPhhjh+0x74>
    1ff0:	9e 2f       	mov	r25, r30
    1ff2:	23 e2       	ldi	r18, 0x23	; 35
    1ff4:	30 e0       	ldi	r19, 0x00	; 0
    1ff6:	11 c0       	rjmp	.+34     	; 0x201a <_ZN18PololuQTRSensorsRC4initEPhhjh+0xa6>
    1ff8:	85 31       	cpi	r24, 0x15	; 21
    1ffa:	20 f0       	brcs	.+8      	; 0x2004 <_ZN18PololuQTRSensorsRC4initEPhhjh+0x90>
    1ffc:	90 e0       	ldi	r25, 0x00	; 0
    1ffe:	20 e0       	ldi	r18, 0x00	; 0
    2000:	30 e0       	ldi	r19, 0x00	; 0
    2002:	0b c0       	rjmp	.+22     	; 0x201a <_ZN18PololuQTRSensorsRC4initEPhhjh+0xa6>
    2004:	90 e0       	ldi	r25, 0x00	; 0
    2006:	0e 97       	sbiw	r24, 0x0e	; 14
    2008:	9b 01       	movw	r18, r22
    200a:	02 c0       	rjmp	.+4      	; 0x2010 <_ZN18PololuQTRSensorsRC4initEPhhjh+0x9c>
    200c:	22 0f       	add	r18, r18
    200e:	33 1f       	adc	r19, r19
    2010:	8a 95       	dec	r24
    2012:	e2 f7       	brpl	.-8      	; 0x200c <_ZN18PololuQTRSensorsRC4initEPhhjh+0x98>
    2014:	92 2f       	mov	r25, r18
    2016:	26 e2       	ldi	r18, 0x26	; 38
    2018:	30 e0       	ldi	r19, 0x00	; 0
    201a:	e4 2f       	mov	r30, r20
    201c:	f0 e0       	ldi	r31, 0x00	; 0
    201e:	de 01       	movw	r26, r28
    2020:	ae 0f       	add	r26, r30
    2022:	bf 1f       	adc	r27, r31
    2024:	51 96       	adiw	r26, 0x11	; 17
    2026:	9c 93       	st	X, r25
    2028:	ee 0f       	add	r30, r30
    202a:	ff 1f       	adc	r31, r31
    202c:	ec 0f       	add	r30, r28
    202e:	fd 1f       	adc	r31, r29
    2030:	32 a3       	std	Z+34, r19	; 0x22
    2032:	21 a3       	std	Z+33, r18	; 0x21
    2034:	23 32       	cpi	r18, 0x23	; 35
    2036:	31 05       	cpc	r19, r1
    2038:	11 f4       	brne	.+4      	; 0x203e <_ZN18PololuQTRSensorsRC4initEPhhjh+0xca>
    203a:	f8 01       	movw	r30, r16
    203c:	09 c0       	rjmp	.+18     	; 0x2050 <_ZN18PololuQTRSensorsRC4initEPhhjh+0xdc>
    203e:	26 32       	cpi	r18, 0x26	; 38
    2040:	31 05       	cpc	r19, r1
    2042:	11 f4       	brne	.+4      	; 0x2048 <_ZN18PololuQTRSensorsRC4initEPhhjh+0xd4>
    2044:	f7 01       	movw	r30, r14
    2046:	04 c0       	rjmp	.+8      	; 0x2050 <_ZN18PololuQTRSensorsRC4initEPhhjh+0xdc>
    2048:	29 32       	cpi	r18, 0x29	; 41
    204a:	31 05       	cpc	r19, r1
    204c:	21 f4       	brne	.+8      	; 0x2056 <_ZN18PololuQTRSensorsRC4initEPhhjh+0xe2>
    204e:	f6 01       	movw	r30, r12
    2050:	80 81       	ld	r24, Z
    2052:	98 2b       	or	r25, r24
    2054:	90 83       	st	Z, r25
    2056:	4f 5f       	subi	r20, 0xFF	; 255
    2058:	88 85       	ldd	r24, Y+8	; 0x08
    205a:	48 17       	cp	r20, r24
    205c:	08 f4       	brcc	.+2      	; 0x2060 <_ZN18PololuQTRSensorsRC4initEPhhjh+0xec>
    205e:	ae cf       	rjmp	.-164    	; 0x1fbc <_ZN18PololuQTRSensorsRC4initEPhhjh+0x48>
    2060:	cd b7       	in	r28, 0x3d	; 61
    2062:	de b7       	in	r29, 0x3e	; 62
    2064:	ea e0       	ldi	r30, 0x0A	; 10
    2066:	0c 94 2e 16 	jmp	0x2c5c	; 0x2c5c <__epilogue_restores__+0x10>

0000206a <_ZN18PololuQTRSensorsRCC1EPhhjh>:
    206a:	0f 93       	push	r16
    206c:	0e 94 ba 0f 	call	0x1f74	; 0x1f74 <_ZN18PololuQTRSensorsRC4initEPhhjh>
    2070:	0f 91       	pop	r16
    2072:	08 95       	ret

00002074 <_ZN18PololuQTRSensorsRCC2EPhhjh>:
    2074:	0f 93       	push	r16
    2076:	0e 94 ba 0f 	call	0x1f74	; 0x1f74 <_ZN18PololuQTRSensorsRC4initEPhhjh>
    207a:	0f 91       	pop	r16
    207c:	08 95       	ret

0000207e <_ZN18PololuQTRSensorsRC11readPrivateEPj>:
    207e:	a0 e0       	ldi	r26, 0x00	; 0
    2080:	b0 e0       	ldi	r27, 0x00	; 0
    2082:	e5 e4       	ldi	r30, 0x45	; 69
    2084:	f0 e1       	ldi	r31, 0x10	; 16
    2086:	0c 94 10 16 	jmp	0x2c20	; 0x2c20 <__prologue_saves__+0xc>
    208a:	ec 01       	movw	r28, r24
    208c:	5b 01       	movw	r10, r22
    208e:	cf 5b       	subi	r28, 0xBF	; 191
    2090:	df 4f       	sbci	r29, 0xFF	; 255
    2092:	49 91       	ld	r20, Y+
    2094:	a9 91       	ld	r26, Y+
    2096:	88 80       	ld	r8, Y
    2098:	c3 54       	subi	r28, 0x43	; 67
    209a:	d0 40       	sbci	r29, 0x00	; 0
    209c:	90 e0       	ldi	r25, 0x00	; 0
    209e:	09 c0       	rjmp	.+18     	; 0x20b2 <_ZN18PololuQTRSensorsRC11readPrivateEPj+0x34>
    20a0:	e9 2f       	mov	r30, r25
    20a2:	f0 e0       	ldi	r31, 0x00	; 0
    20a4:	ee 0f       	add	r30, r30
    20a6:	ff 1f       	adc	r31, r31
    20a8:	ea 0d       	add	r30, r10
    20aa:	fb 1d       	adc	r31, r11
    20ac:	11 82       	std	Z+1, r1	; 0x01
    20ae:	10 82       	st	Z, r1
    20b0:	9f 5f       	subi	r25, 0xFF	; 255
    20b2:	88 85       	ldd	r24, Y+8	; 0x08
    20b4:	98 17       	cp	r25, r24
    20b6:	a0 f3       	brcs	.-24     	; 0x20a0 <_ZN18PololuQTRSensorsRC11readPrivateEPj+0x22>
    20b8:	84 b1       	in	r24, 0x04	; 4
    20ba:	cf 5b       	subi	r28, 0xBF	; 191
    20bc:	df 4f       	sbci	r29, 0xFF	; 255
    20be:	39 91       	ld	r19, Y+
    20c0:	83 2b       	or	r24, r19
    20c2:	84 b9       	out	0x04, r24	; 4
    20c4:	87 b1       	in	r24, 0x07	; 7
    20c6:	29 91       	ld	r18, Y+
    20c8:	82 2b       	or	r24, r18
    20ca:	87 b9       	out	0x07, r24	; 7
    20cc:	8a b1       	in	r24, 0x0a	; 10
    20ce:	98 81       	ld	r25, Y
    20d0:	c3 54       	subi	r28, 0x43	; 67
    20d2:	d0 40       	sbci	r29, 0x00	; 0
    20d4:	89 2b       	or	r24, r25
    20d6:	8a b9       	out	0x0a, r24	; 10
    20d8:	85 b1       	in	r24, 0x05	; 5
    20da:	83 2b       	or	r24, r19
    20dc:	85 b9       	out	0x05, r24	; 5
    20de:	88 b1       	in	r24, 0x08	; 8
    20e0:	82 2b       	or	r24, r18
    20e2:	88 b9       	out	0x08, r24	; 8
    20e4:	8b b1       	in	r24, 0x0b	; 11
    20e6:	89 2b       	or	r24, r25
    20e8:	8b b9       	out	0x0b, r24	; 11
    20ea:	ea e0       	ldi	r30, 0x0A	; 10
    20ec:	f0 e0       	ldi	r31, 0x00	; 0
    20ee:	6f 93       	push	r22
    20f0:	64 e0       	ldi	r22, 0x04	; 4
    20f2:	6a 95       	dec	r22
    20f4:	f1 f7       	brne	.-4      	; 0x20f2 <_ZN18PololuQTRSensorsRC11readPrivateEPj+0x74>
    20f6:	6f 91       	pop	r22
    20f8:	31 97       	sbiw	r30, 0x01	; 1
    20fa:	c9 f7       	brne	.-14     	; 0x20ee <_ZN18PololuQTRSensorsRC11readPrivateEPj+0x70>
    20fc:	84 b1       	in	r24, 0x04	; 4
    20fe:	30 95       	com	r19
    2100:	83 23       	and	r24, r19
    2102:	84 b9       	out	0x04, r24	; 4
    2104:	87 b1       	in	r24, 0x07	; 7
    2106:	20 95       	com	r18
    2108:	82 23       	and	r24, r18
    210a:	87 b9       	out	0x07, r24	; 7
    210c:	8a b1       	in	r24, 0x0a	; 10
    210e:	90 95       	com	r25
    2110:	89 23       	and	r24, r25
    2112:	8a b9       	out	0x0a, r24	; 10
    2114:	85 b1       	in	r24, 0x05	; 5
    2116:	38 23       	and	r19, r24
    2118:	35 b9       	out	0x05, r19	; 5
    211a:	88 b1       	in	r24, 0x08	; 8
    211c:	28 23       	and	r18, r24
    211e:	28 b9       	out	0x08, r18	; 8
    2120:	8b b1       	in	r24, 0x0b	; 11
    2122:	98 23       	and	r25, r24
    2124:	9b b9       	out	0x0b, r25	; 11
    2126:	90 90 b0 00 	lds	r9, 0x00B0
    212a:	c0 90 b1 00 	lds	r12, 0x00B1
    212e:	80 91 b0 00 	lds	r24, 0x00B0
    2132:	83 60       	ori	r24, 0x03	; 3
    2134:	80 93 b0 00 	sts	0x00B0, r24
    2138:	82 e0       	ldi	r24, 0x02	; 2
    213a:	80 93 b1 00 	sts	0x00B1, r24
    213e:	d0 90 b2 00 	lds	r13, 0x00B2
    2142:	60 e0       	ldi	r22, 0x00	; 0
    2144:	70 e0       	ldi	r23, 0x00	; 0
    2146:	3a c0       	rjmp	.+116    	; 0x21bc <_ZN18PololuQTRSensorsRC11readPrivateEPj+0x13e>
    2148:	50 91 b2 00 	lds	r21, 0x00B2
    214c:	5d 19       	sub	r21, r13
    214e:	65 0f       	add	r22, r21
    2150:	71 1d       	adc	r23, r1
    2152:	e3 b0       	in	r14, 0x03	; 3
    2154:	e4 16       	cp	r14, r20
    2156:	09 f0       	breq	.+2      	; 0x215a <_ZN18PololuQTRSensorsRC11readPrivateEPj+0xdc>
    2158:	4f c0       	rjmp	.+158    	; 0x21f8 <_ZN18PololuQTRSensorsRC11readPrivateEPj+0x17a>
    215a:	f6 b0       	in	r15, 0x06	; 6
    215c:	fa 16       	cp	r15, r26
    215e:	09 f0       	breq	.+2      	; 0x2162 <_ZN18PololuQTRSensorsRC11readPrivateEPj+0xe4>
    2160:	4b c0       	rjmp	.+150    	; 0x21f8 <_ZN18PololuQTRSensorsRC11readPrivateEPj+0x17a>
    2162:	89 b1       	in	r24, 0x09	; 9
    2164:	88 15       	cp	r24, r8
    2166:	09 f0       	breq	.+2      	; 0x216a <_ZN18PololuQTRSensorsRC11readPrivateEPj+0xec>
    2168:	47 c0       	rjmp	.+142    	; 0x21f8 <_ZN18PololuQTRSensorsRC11readPrivateEPj+0x17a>
    216a:	25 c0       	rjmp	.+74     	; 0x21b6 <_ZN18PololuQTRSensorsRC11readPrivateEPj+0x138>
    216c:	a4 2f       	mov	r26, r20
    216e:	b0 e0       	ldi	r27, 0x00	; 0
    2170:	9d 01       	movw	r18, r26
    2172:	22 0f       	add	r18, r18
    2174:	33 1f       	adc	r19, r19
    2176:	85 01       	movw	r16, r10
    2178:	02 0f       	add	r16, r18
    217a:	13 1f       	adc	r17, r19
    217c:	f8 01       	movw	r30, r16
    217e:	80 81       	ld	r24, Z
    2180:	91 81       	ldd	r25, Z+1	; 0x01
    2182:	89 2b       	or	r24, r25
    2184:	a1 f4       	brne	.+40     	; 0x21ae <_ZN18PololuQTRSensorsRC11readPrivateEPj+0x130>
    2186:	2c 0f       	add	r18, r28
    2188:	3d 1f       	adc	r19, r29
    218a:	f9 01       	movw	r30, r18
    218c:	81 a1       	ldd	r24, Z+33	; 0x21
    218e:	92 a1       	ldd	r25, Z+34	; 0x22
    2190:	fc 01       	movw	r30, r24
    2192:	20 81       	ld	r18, Z
    2194:	30 e0       	ldi	r19, 0x00	; 0
    2196:	ac 0f       	add	r26, r28
    2198:	bd 1f       	adc	r27, r29
    219a:	51 96       	adiw	r26, 0x11	; 17
    219c:	8c 91       	ld	r24, X
    219e:	90 e0       	ldi	r25, 0x00	; 0
    21a0:	28 23       	and	r18, r24
    21a2:	39 23       	and	r19, r25
    21a4:	23 2b       	or	r18, r19
    21a6:	19 f4       	brne	.+6      	; 0x21ae <_ZN18PololuQTRSensorsRC11readPrivateEPj+0x130>
    21a8:	f8 01       	movw	r30, r16
    21aa:	71 83       	std	Z+1, r23	; 0x01
    21ac:	60 83       	st	Z, r22
    21ae:	4f 5f       	subi	r20, 0xFF	; 255
    21b0:	88 85       	ldd	r24, Y+8	; 0x08
    21b2:	48 17       	cp	r20, r24
    21b4:	d8 f2       	brcs	.-74     	; 0x216c <_ZN18PololuQTRSensorsRC11readPrivateEPj+0xee>
    21b6:	d5 0e       	add	r13, r21
    21b8:	4e 2d       	mov	r20, r14
    21ba:	af 2d       	mov	r26, r15
    21bc:	8e 85       	ldd	r24, Y+14	; 0x0e
    21be:	9f 85       	ldd	r25, Y+15	; 0x0f
    21c0:	68 17       	cp	r22, r24
    21c2:	79 07       	cpc	r23, r25
    21c4:	08 f2       	brcs	.-126    	; 0x2148 <_ZN18PololuQTRSensorsRC11readPrivateEPj+0xca>
    21c6:	90 92 b0 00 	sts	0x00B0, r9
    21ca:	c0 92 b1 00 	sts	0x00B1, r12
    21ce:	20 e0       	ldi	r18, 0x00	; 0
    21d0:	0f c0       	rjmp	.+30     	; 0x21f0 <_ZN18PololuQTRSensorsRC11readPrivateEPj+0x172>
    21d2:	e2 2f       	mov	r30, r18
    21d4:	f0 e0       	ldi	r31, 0x00	; 0
    21d6:	ee 0f       	add	r30, r30
    21d8:	ff 1f       	adc	r31, r31
    21da:	ea 0d       	add	r30, r10
    21dc:	fb 1d       	adc	r31, r11
    21de:	80 81       	ld	r24, Z
    21e0:	91 81       	ldd	r25, Z+1	; 0x01
    21e2:	89 2b       	or	r24, r25
    21e4:	21 f4       	brne	.+8      	; 0x21ee <_ZN18PololuQTRSensorsRC11readPrivateEPj+0x170>
    21e6:	8e 85       	ldd	r24, Y+14	; 0x0e
    21e8:	9f 85       	ldd	r25, Y+15	; 0x0f
    21ea:	91 83       	std	Z+1, r25	; 0x01
    21ec:	80 83       	st	Z, r24
    21ee:	2f 5f       	subi	r18, 0xFF	; 255
    21f0:	88 85       	ldd	r24, Y+8	; 0x08
    21f2:	28 17       	cp	r18, r24
    21f4:	70 f3       	brcs	.-36     	; 0x21d2 <_ZN18PololuQTRSensorsRC11readPrivateEPj+0x154>
    21f6:	05 c0       	rjmp	.+10     	; 0x2202 <_ZN18PololuQTRSensorsRC11readPrivateEPj+0x184>
    21f8:	e3 b0       	in	r14, 0x03	; 3
    21fa:	f6 b0       	in	r15, 0x06	; 6
    21fc:	89 b0       	in	r8, 0x09	; 9
    21fe:	40 e0       	ldi	r20, 0x00	; 0
    2200:	d7 cf       	rjmp	.-82     	; 0x21b0 <_ZN18PololuQTRSensorsRC11readPrivateEPj+0x132>
    2202:	cd b7       	in	r28, 0x3d	; 61
    2204:	de b7       	in	r29, 0x3e	; 62
    2206:	ec e0       	ldi	r30, 0x0C	; 12
    2208:	0c 94 2c 16 	jmp	0x2c58	; 0x2c58 <__epilogue_restores__+0xc>

0000220c <_ZN22PololuQTRSensorsAnalog4initEPhhhh>:
    220c:	ef 92       	push	r14
    220e:	ff 92       	push	r15
    2210:	0f 93       	push	r16
    2212:	1f 93       	push	r17
    2214:	cf 93       	push	r28
    2216:	df 93       	push	r29
    2218:	ec 01       	movw	r28, r24
    221a:	7b 01       	movw	r14, r22
    221c:	12 2f       	mov	r17, r18
    221e:	64 2f       	mov	r22, r20
    2220:	40 2f       	mov	r20, r16
    2222:	21 e0       	ldi	r18, 0x01	; 1
    2224:	0e 94 ed 0e 	call	0x1dda	; 0x1dda <_ZN16PololuQTRSensors4initEhhh>
    2228:	19 a3       	std	Y+33, r17	; 0x21
    222a:	1a a2       	std	Y+34, r1	; 0x22
    222c:	30 e0       	ldi	r19, 0x00	; 0
    222e:	41 e0       	ldi	r20, 0x01	; 1
    2230:	50 e0       	ldi	r21, 0x00	; 0
    2232:	13 c0       	rjmp	.+38     	; 0x225a <_ZN22PololuQTRSensorsAnalog4initEPhhhh+0x4e>
    2234:	e3 2f       	mov	r30, r19
    2236:	f0 e0       	ldi	r31, 0x00	; 0
    2238:	d7 01       	movw	r26, r14
    223a:	ae 0f       	add	r26, r30
    223c:	bf 1f       	adc	r27, r31
    223e:	ec 0f       	add	r30, r28
    2240:	fd 1f       	adc	r31, r29
    2242:	8c 91       	ld	r24, X
    2244:	81 8b       	std	Z+17, r24	; 0x11
    2246:	ca 01       	movw	r24, r20
    2248:	0c 90       	ld	r0, X
    224a:	02 c0       	rjmp	.+4      	; 0x2250 <_ZN22PololuQTRSensorsAnalog4initEPhhhh+0x44>
    224c:	88 0f       	add	r24, r24
    224e:	99 1f       	adc	r25, r25
    2250:	0a 94       	dec	r0
    2252:	e2 f7       	brpl	.-8      	; 0x224c <_ZN22PololuQTRSensorsAnalog4initEPhhhh+0x40>
    2254:	28 2b       	or	r18, r24
    2256:	2a a3       	std	Y+34, r18	; 0x22
    2258:	3f 5f       	subi	r19, 0xFF	; 255
    225a:	88 85       	ldd	r24, Y+8	; 0x08
    225c:	2a a1       	ldd	r18, Y+34	; 0x22
    225e:	38 17       	cp	r19, r24
    2260:	48 f3       	brcs	.-46     	; 0x2234 <_ZN22PololuQTRSensorsAnalog4initEPhhhh+0x28>
    2262:	2f 73       	andi	r18, 0x3F	; 63
    2264:	2a a3       	std	Y+34, r18	; 0x22
    2266:	8f ef       	ldi	r24, 0xFF	; 255
    2268:	93 e0       	ldi	r25, 0x03	; 3
    226a:	9f 87       	std	Y+15, r25	; 0x0f
    226c:	8e 87       	std	Y+14, r24	; 0x0e
    226e:	cd b7       	in	r28, 0x3d	; 61
    2270:	de b7       	in	r29, 0x3e	; 62
    2272:	e6 e0       	ldi	r30, 0x06	; 6
    2274:	0c 94 32 16 	jmp	0x2c64	; 0x2c64 <__epilogue_restores__+0x18>

00002278 <_ZN22PololuQTRSensorsAnalogC1EPhhhh>:
    2278:	0f 93       	push	r16
    227a:	0e 94 06 11 	call	0x220c	; 0x220c <_ZN22PololuQTRSensorsAnalog4initEPhhhh>
    227e:	0f 91       	pop	r16
    2280:	08 95       	ret

00002282 <_ZN22PololuQTRSensorsAnalogC2EPhhhh>:
    2282:	0f 93       	push	r16
    2284:	0e 94 06 11 	call	0x220c	; 0x220c <_ZN22PololuQTRSensorsAnalog4initEPhhhh>
    2288:	0f 91       	pop	r16
    228a:	08 95       	ret

0000228c <_ZN22PololuQTRSensorsAnalog11readPrivateEPj>:
    228c:	a0 e0       	ldi	r26, 0x00	; 0
    228e:	b0 e0       	ldi	r27, 0x00	; 0
    2290:	ec e4       	ldi	r30, 0x4C	; 76
    2292:	f1 e1       	ldi	r31, 0x11	; 17
    2294:	0c 94 14 16 	jmp	0x2c28	; 0x2c28 <__prologue_saves__+0x14>
    2298:	ec 01       	movw	r28, r24
    229a:	8b 01       	movw	r16, r22
    229c:	d0 90 7c 00 	lds	r13, 0x007C
    22a0:	e0 90 7a 00 	lds	r14, 0x007A
    22a4:	c7 b0       	in	r12, 0x07	; 7
    22a6:	f8 b0       	in	r15, 0x08	; 8
    22a8:	80 91 7a 00 	lds	r24, 0x007A
    22ac:	86 fd       	sbrc	r24, 6
    22ae:	fc cf       	rjmp	.-8      	; 0x22a8 <_ZN22PololuQTRSensorsAnalog11readPrivateEPj+0x1c>
    22b0:	90 e0       	ldi	r25, 0x00	; 0
    22b2:	09 c0       	rjmp	.+18     	; 0x22c6 <_ZN22PololuQTRSensorsAnalog11readPrivateEPj+0x3a>
    22b4:	e9 2f       	mov	r30, r25
    22b6:	f0 e0       	ldi	r31, 0x00	; 0
    22b8:	ee 0f       	add	r30, r30
    22ba:	ff 1f       	adc	r31, r31
    22bc:	e0 0f       	add	r30, r16
    22be:	f1 1f       	adc	r31, r17
    22c0:	11 82       	std	Z+1, r1	; 0x01
    22c2:	10 82       	st	Z, r1
    22c4:	9f 5f       	subi	r25, 0xFF	; 255
    22c6:	88 85       	ldd	r24, Y+8	; 0x08
    22c8:	98 17       	cp	r25, r24
    22ca:	a0 f3       	brcs	.-24     	; 0x22b4 <_ZN22PololuQTRSensorsAnalog11readPrivateEPj+0x28>
    22cc:	97 b1       	in	r25, 0x07	; 7
    22ce:	8a a1       	ldd	r24, Y+34	; 0x22
    22d0:	80 95       	com	r24
    22d2:	98 23       	and	r25, r24
    22d4:	97 b9       	out	0x07, r25	; 7
    22d6:	98 b1       	in	r25, 0x08	; 8
    22d8:	89 23       	and	r24, r25
    22da:	88 b9       	out	0x08, r24	; 8
    22dc:	87 e8       	ldi	r24, 0x87	; 135
    22de:	80 93 7a 00 	sts	0x007A, r24
    22e2:	50 e0       	ldi	r21, 0x00	; 0
    22e4:	25 c0       	rjmp	.+74     	; 0x2330 <_ZN22PololuQTRSensorsAnalog11readPrivateEPj+0xa4>
    22e6:	fe 01       	movw	r30, r28
    22e8:	e4 0f       	add	r30, r20
    22ea:	f1 1d       	adc	r31, r1
    22ec:	81 89       	ldd	r24, Z+17	; 0x11
    22ee:	80 64       	ori	r24, 0x40	; 64
    22f0:	80 93 7c 00 	sts	0x007C, r24
    22f4:	80 91 7a 00 	lds	r24, 0x007A
    22f8:	80 64       	ori	r24, 0x40	; 64
    22fa:	80 93 7a 00 	sts	0x007A, r24
    22fe:	80 91 7a 00 	lds	r24, 0x007A
    2302:	86 fd       	sbrc	r24, 6
    2304:	fc cf       	rjmp	.-8      	; 0x22fe <_ZN22PololuQTRSensorsAnalog11readPrivateEPj+0x72>
    2306:	e4 2f       	mov	r30, r20
    2308:	f0 e0       	ldi	r31, 0x00	; 0
    230a:	ee 0f       	add	r30, r30
    230c:	ff 1f       	adc	r31, r31
    230e:	e0 0f       	add	r30, r16
    2310:	f1 1f       	adc	r31, r17
    2312:	20 91 78 00 	lds	r18, 0x0078
    2316:	30 91 79 00 	lds	r19, 0x0079
    231a:	80 81       	ld	r24, Z
    231c:	91 81       	ldd	r25, Z+1	; 0x01
    231e:	82 0f       	add	r24, r18
    2320:	93 1f       	adc	r25, r19
    2322:	91 83       	std	Z+1, r25	; 0x01
    2324:	80 83       	st	Z, r24
    2326:	4f 5f       	subi	r20, 0xFF	; 255
    2328:	88 85       	ldd	r24, Y+8	; 0x08
    232a:	48 17       	cp	r20, r24
    232c:	e0 f2       	brcs	.-72     	; 0x22e6 <_ZN22PololuQTRSensorsAnalog11readPrivateEPj+0x5a>
    232e:	5f 5f       	subi	r21, 0xFF	; 255
    2330:	89 a1       	ldd	r24, Y+33	; 0x21
    2332:	58 17       	cp	r21, r24
    2334:	10 f0       	brcs	.+4      	; 0x233a <_ZN22PololuQTRSensorsAnalog11readPrivateEPj+0xae>
    2336:	40 e0       	ldi	r20, 0x00	; 0
    2338:	17 c0       	rjmp	.+46     	; 0x2368 <_ZN22PololuQTRSensorsAnalog11readPrivateEPj+0xdc>
    233a:	40 e0       	ldi	r20, 0x00	; 0
    233c:	f5 cf       	rjmp	.-22     	; 0x2328 <_ZN22PololuQTRSensorsAnalog11readPrivateEPj+0x9c>
    233e:	e4 2f       	mov	r30, r20
    2340:	f0 e0       	ldi	r31, 0x00	; 0
    2342:	ee 0f       	add	r30, r30
    2344:	ff 1f       	adc	r31, r31
    2346:	e0 0f       	add	r30, r16
    2348:	f1 1f       	adc	r31, r17
    234a:	69 a1       	ldd	r22, Y+33	; 0x21
    234c:	86 2f       	mov	r24, r22
    234e:	90 e0       	ldi	r25, 0x00	; 0
    2350:	95 95       	asr	r25
    2352:	87 95       	ror	r24
    2354:	20 81       	ld	r18, Z
    2356:	31 81       	ldd	r19, Z+1	; 0x01
    2358:	82 0f       	add	r24, r18
    235a:	93 1f       	adc	r25, r19
    235c:	70 e0       	ldi	r23, 0x00	; 0
    235e:	0e 94 a6 15 	call	0x2b4c	; 0x2b4c <__udivmodhi4>
    2362:	71 83       	std	Z+1, r23	; 0x01
    2364:	60 83       	st	Z, r22
    2366:	4f 5f       	subi	r20, 0xFF	; 255
    2368:	88 85       	ldd	r24, Y+8	; 0x08
    236a:	48 17       	cp	r20, r24
    236c:	40 f3       	brcs	.-48     	; 0x233e <_ZN22PololuQTRSensorsAnalog11readPrivateEPj+0xb2>
    236e:	d0 92 7c 00 	sts	0x007C, r13
    2372:	e0 92 7a 00 	sts	0x007A, r14
    2376:	f8 b8       	out	0x08, r15	; 8
    2378:	c7 b8       	out	0x07, r12	; 7
    237a:	cd b7       	in	r28, 0x3d	; 61
    237c:	de b7       	in	r29, 0x3e	; 62
    237e:	e8 e0       	ldi	r30, 0x08	; 8
    2380:	0c 94 30 16 	jmp	0x2c60	; 0x2c60 <__epilogue_restores__+0x14>

00002384 <_ZN16PololuQTRSensors4readEPjh>:
    2384:	a0 e2       	ldi	r26, 0x20	; 32
    2386:	b0 e0       	ldi	r27, 0x00	; 0
    2388:	e8 ec       	ldi	r30, 0xC8	; 200
    238a:	f1 e1       	ldi	r31, 0x11	; 17
    238c:	0c 94 13 16 	jmp	0x2c26	; 0x2c26 <__prologue_saves__+0x12>
    2390:	8c 01       	movw	r16, r24
    2392:	7b 01       	movw	r14, r22
    2394:	d4 2e       	mov	r13, r20
    2396:	84 2f       	mov	r24, r20
    2398:	81 50       	subi	r24, 0x01	; 1
    239a:	82 30       	cpi	r24, 0x02	; 2
    239c:	b0 f4       	brcc	.+44     	; 0x23ca <_ZN16PololuQTRSensors4readEPjh+0x46>
    239e:	d8 01       	movw	r26, r16
    23a0:	1c 96       	adiw	r26, 0x0c	; 12
    23a2:	ed 91       	ld	r30, X+
    23a4:	fc 91       	ld	r31, X
    23a6:	1d 97       	sbiw	r26, 0x0d	; 13
    23a8:	30 97       	sbiw	r30, 0x00	; 0
    23aa:	79 f0       	breq	.+30     	; 0x23ca <_ZN16PololuQTRSensors4readEPjh+0x46>
    23ac:	80 81       	ld	r24, Z
    23ae:	19 96       	adiw	r26, 0x09	; 9
    23b0:	9c 91       	ld	r25, X
    23b2:	19 97       	sbiw	r26, 0x09	; 9
    23b4:	89 2b       	or	r24, r25
    23b6:	80 83       	st	Z, r24
    23b8:	1a 96       	adiw	r26, 0x0a	; 10
    23ba:	ed 91       	ld	r30, X+
    23bc:	fc 91       	ld	r31, X
    23be:	1b 97       	sbiw	r26, 0x0b	; 11
    23c0:	80 81       	ld	r24, Z
    23c2:	19 96       	adiw	r26, 0x09	; 9
    23c4:	9c 91       	ld	r25, X
    23c6:	89 2b       	or	r24, r25
    23c8:	80 83       	st	Z, r24
    23ca:	f8 01       	movw	r30, r16
    23cc:	80 89       	ldd	r24, Z+16	; 0x10
    23ce:	88 23       	and	r24, r24
    23d0:	49 f5       	brne	.+82     	; 0x2424 <_ZN16PololuQTRSensors4readEPjh+0xa0>
    23d2:	c0 2e       	mov	r12, r16
    23d4:	b1 2e       	mov	r11, r17
    23d6:	c8 01       	movw	r24, r16
    23d8:	b7 01       	movw	r22, r14
    23da:	0e 94 3f 10 	call	0x207e	; 0x207e <_ZN18PololuQTRSensorsRC11readPrivateEPj>
    23de:	d8 01       	movw	r26, r16
    23e0:	1c 96       	adiw	r26, 0x0c	; 12
    23e2:	ed 91       	ld	r30, X+
    23e4:	fc 91       	ld	r31, X
    23e6:	1d 97       	sbiw	r26, 0x0d	; 13
    23e8:	30 97       	sbiw	r30, 0x00	; 0
    23ea:	81 f0       	breq	.+32     	; 0x240c <_ZN16PololuQTRSensors4readEPjh+0x88>
    23ec:	80 81       	ld	r24, Z
    23ee:	19 96       	adiw	r26, 0x09	; 9
    23f0:	9c 91       	ld	r25, X
    23f2:	19 97       	sbiw	r26, 0x09	; 9
    23f4:	89 2b       	or	r24, r25
    23f6:	80 83       	st	Z, r24
    23f8:	1a 96       	adiw	r26, 0x0a	; 10
    23fa:	ed 91       	ld	r30, X+
    23fc:	fc 91       	ld	r31, X
    23fe:	1b 97       	sbiw	r26, 0x0b	; 11
    2400:	90 81       	ld	r25, Z
    2402:	19 96       	adiw	r26, 0x09	; 9
    2404:	8c 91       	ld	r24, X
    2406:	80 95       	com	r24
    2408:	89 23       	and	r24, r25
    240a:	80 83       	st	Z, r24
    240c:	b2 e0       	ldi	r27, 0x02	; 2
    240e:	db 16       	cp	r13, r27
    2410:	09 f0       	breq	.+2      	; 0x2414 <_ZN16PololuQTRSensors4readEPjh+0x90>
    2412:	53 c0       	rjmp	.+166    	; 0x24ba <_ZN16PololuQTRSensors4readEPjh+0x136>
    2414:	8c 2d       	mov	r24, r12
    2416:	9b 2d       	mov	r25, r11
    2418:	be 01       	movw	r22, r28
    241a:	6f 5f       	subi	r22, 0xFF	; 255
    241c:	7f 4f       	sbci	r23, 0xFF	; 255
    241e:	0e 94 3f 10 	call	0x207e	; 0x207e <_ZN18PololuQTRSensorsRC11readPrivateEPj>
    2422:	27 c0       	rjmp	.+78     	; 0x2472 <_ZN16PololuQTRSensors4readEPjh+0xee>
    2424:	c0 2e       	mov	r12, r16
    2426:	b1 2e       	mov	r11, r17
    2428:	c8 01       	movw	r24, r16
    242a:	b7 01       	movw	r22, r14
    242c:	0e 94 46 11 	call	0x228c	; 0x228c <_ZN22PololuQTRSensorsAnalog11readPrivateEPj>
    2430:	d8 01       	movw	r26, r16
    2432:	1c 96       	adiw	r26, 0x0c	; 12
    2434:	ed 91       	ld	r30, X+
    2436:	fc 91       	ld	r31, X
    2438:	1d 97       	sbiw	r26, 0x0d	; 13
    243a:	30 97       	sbiw	r30, 0x00	; 0
    243c:	81 f0       	breq	.+32     	; 0x245e <_ZN16PololuQTRSensors4readEPjh+0xda>
    243e:	80 81       	ld	r24, Z
    2440:	19 96       	adiw	r26, 0x09	; 9
    2442:	9c 91       	ld	r25, X
    2444:	19 97       	sbiw	r26, 0x09	; 9
    2446:	89 2b       	or	r24, r25
    2448:	80 83       	st	Z, r24
    244a:	1a 96       	adiw	r26, 0x0a	; 10
    244c:	ed 91       	ld	r30, X+
    244e:	fc 91       	ld	r31, X
    2450:	1b 97       	sbiw	r26, 0x0b	; 11
    2452:	90 81       	ld	r25, Z
    2454:	19 96       	adiw	r26, 0x09	; 9
    2456:	8c 91       	ld	r24, X
    2458:	80 95       	com	r24
    245a:	89 23       	and	r24, r25
    245c:	80 83       	st	Z, r24
    245e:	b2 e0       	ldi	r27, 0x02	; 2
    2460:	db 16       	cp	r13, r27
    2462:	59 f5       	brne	.+86     	; 0x24ba <_ZN16PololuQTRSensors4readEPjh+0x136>
    2464:	8c 2d       	mov	r24, r12
    2466:	9b 2d       	mov	r25, r11
    2468:	be 01       	movw	r22, r28
    246a:	6f 5f       	subi	r22, 0xFF	; 255
    246c:	7f 4f       	sbci	r23, 0xFF	; 255
    246e:	0e 94 46 11 	call	0x228c	; 0x228c <_ZN22PololuQTRSensorsAnalog11readPrivateEPj>
    2472:	40 e0       	ldi	r20, 0x00	; 0
    2474:	be 01       	movw	r22, r28
    2476:	6f 5f       	subi	r22, 0xFF	; 255
    2478:	7f 4f       	sbci	r23, 0xFF	; 255
    247a:	1a c0       	rjmp	.+52     	; 0x24b0 <_ZN16PololuQTRSensors4readEPjh+0x12c>
    247c:	e4 2f       	mov	r30, r20
    247e:	f0 e0       	ldi	r31, 0x00	; 0
    2480:	ee 0f       	add	r30, r30
    2482:	ff 1f       	adc	r31, r31
    2484:	67 01       	movw	r12, r14
    2486:	ce 0e       	add	r12, r30
    2488:	df 1e       	adc	r13, r31
    248a:	e6 0f       	add	r30, r22
    248c:	f7 1f       	adc	r31, r23
    248e:	d8 01       	movw	r26, r16
    2490:	1e 96       	adiw	r26, 0x0e	; 14
    2492:	2d 91       	ld	r18, X+
    2494:	3c 91       	ld	r19, X
    2496:	1f 97       	sbiw	r26, 0x0f	; 15
    2498:	80 81       	ld	r24, Z
    249a:	91 81       	ldd	r25, Z+1	; 0x01
    249c:	28 1b       	sub	r18, r24
    249e:	39 0b       	sbc	r19, r25
    24a0:	f6 01       	movw	r30, r12
    24a2:	80 81       	ld	r24, Z
    24a4:	91 81       	ldd	r25, Z+1	; 0x01
    24a6:	82 0f       	add	r24, r18
    24a8:	93 1f       	adc	r25, r19
    24aa:	91 83       	std	Z+1, r25	; 0x01
    24ac:	80 83       	st	Z, r24
    24ae:	4f 5f       	subi	r20, 0xFF	; 255
    24b0:	d8 01       	movw	r26, r16
    24b2:	18 96       	adiw	r26, 0x08	; 8
    24b4:	8c 91       	ld	r24, X
    24b6:	48 17       	cp	r20, r24
    24b8:	08 f3       	brcs	.-62     	; 0x247c <_ZN16PololuQTRSensors4readEPjh+0xf8>
    24ba:	a0 96       	adiw	r28, 0x20	; 32
    24bc:	e9 e0       	ldi	r30, 0x09	; 9
    24be:	0c 94 2f 16 	jmp	0x2c5e	; 0x2c5e <__epilogue_restores__+0x12>

000024c2 <_ZN16PololuQTRSensors14readCalibratedEPjh>:
    24c2:	a0 e0       	ldi	r26, 0x00	; 0
    24c4:	b0 e0       	ldi	r27, 0x00	; 0
    24c6:	e7 e6       	ldi	r30, 0x67	; 103
    24c8:	f2 e1       	ldi	r31, 0x12	; 18
    24ca:	0c 94 11 16 	jmp	0x2c22	; 0x2c22 <__prologue_saves__+0xe>
    24ce:	ec 01       	movw	r28, r24
    24d0:	16 2f       	mov	r17, r22
    24d2:	07 2f       	mov	r16, r23
    24d4:	94 2e       	mov	r9, r20
    24d6:	22 e0       	ldi	r18, 0x02	; 2
    24d8:	42 17       	cp	r20, r18
    24da:	11 f0       	breq	.+4      	; 0x24e0 <_ZN16PololuQTRSensors14readCalibratedEPjh+0x1e>
    24dc:	44 23       	and	r20, r20
    24de:	51 f4       	brne	.+20     	; 0x24f4 <_ZN16PololuQTRSensors14readCalibratedEPjh+0x32>
    24e0:	8c 81       	ldd	r24, Y+4	; 0x04
    24e2:	9d 81       	ldd	r25, Y+5	; 0x05
    24e4:	89 2b       	or	r24, r25
    24e6:	09 f4       	brne	.+2      	; 0x24ea <_ZN16PololuQTRSensors14readCalibratedEPjh+0x28>
    24e8:	a4 c0       	rjmp	.+328    	; 0x2632 <_ZN16PololuQTRSensors14readCalibratedEPjh+0x170>
    24ea:	8e 81       	ldd	r24, Y+6	; 0x06
    24ec:	9f 81       	ldd	r25, Y+7	; 0x07
    24ee:	89 2b       	or	r24, r25
    24f0:	09 f4       	brne	.+2      	; 0x24f4 <_ZN16PololuQTRSensors14readCalibratedEPjh+0x32>
    24f2:	9f c0       	rjmp	.+318    	; 0x2632 <_ZN16PololuQTRSensors14readCalibratedEPjh+0x170>
    24f4:	89 2d       	mov	r24, r9
    24f6:	81 50       	subi	r24, 0x01	; 1
    24f8:	82 30       	cpi	r24, 0x02	; 2
    24fa:	50 f4       	brcc	.+20     	; 0x2510 <_ZN16PololuQTRSensors14readCalibratedEPjh+0x4e>
    24fc:	88 81       	ld	r24, Y
    24fe:	99 81       	ldd	r25, Y+1	; 0x01
    2500:	89 2b       	or	r24, r25
    2502:	09 f4       	brne	.+2      	; 0x2506 <_ZN16PololuQTRSensors14readCalibratedEPjh+0x44>
    2504:	96 c0       	rjmp	.+300    	; 0x2632 <_ZN16PololuQTRSensors14readCalibratedEPjh+0x170>
    2506:	8a 81       	ldd	r24, Y+2	; 0x02
    2508:	9b 81       	ldd	r25, Y+3	; 0x03
    250a:	89 2b       	or	r24, r25
    250c:	09 f4       	brne	.+2      	; 0x2510 <_ZN16PololuQTRSensors14readCalibratedEPjh+0x4e>
    250e:	91 c0       	rjmp	.+290    	; 0x2632 <_ZN16PololuQTRSensors14readCalibratedEPjh+0x170>
    2510:	ce 01       	movw	r24, r28
    2512:	61 2f       	mov	r22, r17
    2514:	70 2f       	mov	r23, r16
    2516:	49 2d       	mov	r20, r9
    2518:	0e 94 c2 11 	call	0x2384	; 0x2384 <_ZN16PololuQTRSensors4readEPjh>
    251c:	81 2f       	mov	r24, r17
    251e:	90 2f       	mov	r25, r16
    2520:	9c 01       	movw	r18, r24
    2522:	59 01       	movw	r10, r18
    2524:	cc 24       	eor	r12, r12
    2526:	dd 24       	eor	r13, r13
    2528:	00 e0       	ldi	r16, 0x00	; 0
    252a:	10 e0       	ldi	r17, 0x00	; 0
    252c:	7c c0       	rjmp	.+248    	; 0x2626 <_ZN16PololuQTRSensors14readCalibratedEPjh+0x164>
    252e:	81 e0       	ldi	r24, 0x01	; 1
    2530:	98 16       	cp	r9, r24
    2532:	69 f4       	brne	.+26     	; 0x254e <_ZN16PololuQTRSensors14readCalibratedEPjh+0x8c>
    2534:	ea 81       	ldd	r30, Y+2	; 0x02
    2536:	fb 81       	ldd	r31, Y+3	; 0x03
    2538:	e0 0f       	add	r30, r16
    253a:	f1 1f       	adc	r31, r17
    253c:	20 81       	ld	r18, Z
    253e:	31 81       	ldd	r19, Z+1	; 0x01
    2540:	e8 81       	ld	r30, Y
    2542:	f9 81       	ldd	r31, Y+1	; 0x01
    2544:	e0 0f       	add	r30, r16
    2546:	f1 1f       	adc	r31, r17
    2548:	40 81       	ld	r20, Z
    254a:	51 81       	ldd	r21, Z+1	; 0x01
    254c:	3d c0       	rjmp	.+122    	; 0x25c8 <_ZN16PololuQTRSensors14readCalibratedEPjh+0x106>
    254e:	ac 81       	ldd	r26, Y+4	; 0x04
    2550:	bd 81       	ldd	r27, Y+5	; 0x05
    2552:	99 20       	and	r9, r9
    2554:	59 f4       	brne	.+22     	; 0x256c <_ZN16PololuQTRSensors14readCalibratedEPjh+0xaa>
    2556:	ee 81       	ldd	r30, Y+6	; 0x06
    2558:	ff 81       	ldd	r31, Y+7	; 0x07
    255a:	e0 0f       	add	r30, r16
    255c:	f1 1f       	adc	r31, r17
    255e:	20 81       	ld	r18, Z
    2560:	31 81       	ldd	r19, Z+1	; 0x01
    2562:	a0 0f       	add	r26, r16
    2564:	b1 1f       	adc	r27, r17
    2566:	4d 91       	ld	r20, X+
    2568:	5c 91       	ld	r21, X
    256a:	2e c0       	rjmp	.+92     	; 0x25c8 <_ZN16PololuQTRSensors14readCalibratedEPjh+0x106>
    256c:	a0 0f       	add	r26, r16
    256e:	b1 1f       	adc	r27, r17
    2570:	8d 91       	ld	r24, X+
    2572:	9c 91       	ld	r25, X
    2574:	e8 81       	ld	r30, Y
    2576:	f9 81       	ldd	r31, Y+1	; 0x01
    2578:	e0 0f       	add	r30, r16
    257a:	f1 1f       	adc	r31, r17
    257c:	20 81       	ld	r18, Z
    257e:	31 81       	ldd	r19, Z+1	; 0x01
    2580:	ee 85       	ldd	r30, Y+14	; 0x0e
    2582:	ff 85       	ldd	r31, Y+15	; 0x0f
    2584:	82 17       	cp	r24, r18
    2586:	93 07       	cpc	r25, r19
    2588:	10 f4       	brcc	.+4      	; 0x258e <_ZN16PololuQTRSensors14readCalibratedEPjh+0xcc>
    258a:	af 01       	movw	r20, r30
    258c:	05 c0       	rjmp	.+10     	; 0x2598 <_ZN16PololuQTRSensors14readCalibratedEPjh+0xd6>
    258e:	a9 01       	movw	r20, r18
    2590:	4e 0f       	add	r20, r30
    2592:	5f 1f       	adc	r21, r31
    2594:	48 1b       	sub	r20, r24
    2596:	59 0b       	sbc	r21, r25
    2598:	ee 81       	ldd	r30, Y+6	; 0x06
    259a:	ff 81       	ldd	r31, Y+7	; 0x07
    259c:	e0 0f       	add	r30, r16
    259e:	f1 1f       	adc	r31, r17
    25a0:	60 81       	ld	r22, Z
    25a2:	71 81       	ldd	r23, Z+1	; 0x01
    25a4:	ea 81       	ldd	r30, Y+2	; 0x02
    25a6:	fb 81       	ldd	r31, Y+3	; 0x03
    25a8:	e0 0f       	add	r30, r16
    25aa:	f1 1f       	adc	r31, r17
    25ac:	80 81       	ld	r24, Z
    25ae:	91 81       	ldd	r25, Z+1	; 0x01
    25b0:	ee 85       	ldd	r30, Y+14	; 0x0e
    25b2:	ff 85       	ldd	r31, Y+15	; 0x0f
    25b4:	68 17       	cp	r22, r24
    25b6:	79 07       	cpc	r23, r25
    25b8:	10 f4       	brcc	.+4      	; 0x25be <_ZN16PololuQTRSensors14readCalibratedEPjh+0xfc>
    25ba:	9f 01       	movw	r18, r30
    25bc:	05 c0       	rjmp	.+10     	; 0x25c8 <_ZN16PololuQTRSensors14readCalibratedEPjh+0x106>
    25be:	9c 01       	movw	r18, r24
    25c0:	2e 0f       	add	r18, r30
    25c2:	3f 1f       	adc	r19, r31
    25c4:	26 1b       	sub	r18, r22
    25c6:	37 0b       	sbc	r19, r23
    25c8:	79 01       	movw	r14, r18
    25ca:	e4 1a       	sub	r14, r20
    25cc:	f5 0a       	sbc	r15, r21
    25ce:	01 f1       	breq	.+64     	; 0x2610 <_ZN16PololuQTRSensors14readCalibratedEPjh+0x14e>
    25d0:	f5 01       	movw	r30, r10
    25d2:	60 81       	ld	r22, Z
    25d4:	71 81       	ldd	r23, Z+1	; 0x01
    25d6:	80 e0       	ldi	r24, 0x00	; 0
    25d8:	90 e0       	ldi	r25, 0x00	; 0
    25da:	9a 01       	movw	r18, r20
    25dc:	40 e0       	ldi	r20, 0x00	; 0
    25de:	50 e0       	ldi	r21, 0x00	; 0
    25e0:	62 1b       	sub	r22, r18
    25e2:	73 0b       	sbc	r23, r19
    25e4:	84 0b       	sbc	r24, r20
    25e6:	95 0b       	sbc	r25, r21
    25e8:	28 ee       	ldi	r18, 0xE8	; 232
    25ea:	33 e0       	ldi	r19, 0x03	; 3
    25ec:	40 e0       	ldi	r20, 0x00	; 0
    25ee:	50 e0       	ldi	r21, 0x00	; 0
    25f0:	0e 94 87 15 	call	0x2b0e	; 0x2b0e <__mulsi3>
    25f4:	97 01       	movw	r18, r14
    25f6:	40 e0       	ldi	r20, 0x00	; 0
    25f8:	50 e0       	ldi	r21, 0x00	; 0
    25fa:	0e 94 ef 15 	call	0x2bde	; 0x2bde <__divmodsi4>
    25fe:	c9 01       	movw	r24, r18
    2600:	f3 e0       	ldi	r31, 0x03	; 3
    2602:	29 3e       	cpi	r18, 0xE9	; 233
    2604:	3f 07       	cpc	r19, r31
    2606:	14 f0       	brlt	.+4      	; 0x260c <_ZN16PololuQTRSensors14readCalibratedEPjh+0x14a>
    2608:	88 ee       	ldi	r24, 0xE8	; 232
    260a:	93 e0       	ldi	r25, 0x03	; 3
    260c:	97 ff       	sbrs	r25, 7
    260e:	02 c0       	rjmp	.+4      	; 0x2614 <_ZN16PololuQTRSensors14readCalibratedEPjh+0x152>
    2610:	80 e0       	ldi	r24, 0x00	; 0
    2612:	90 e0       	ldi	r25, 0x00	; 0
    2614:	f5 01       	movw	r30, r10
    2616:	81 93       	st	Z+, r24
    2618:	91 93       	st	Z+, r25
    261a:	5f 01       	movw	r10, r30
    261c:	08 94       	sec
    261e:	c1 1c       	adc	r12, r1
    2620:	d1 1c       	adc	r13, r1
    2622:	0e 5f       	subi	r16, 0xFE	; 254
    2624:	1f 4f       	sbci	r17, 0xFF	; 255
    2626:	88 85       	ldd	r24, Y+8	; 0x08
    2628:	90 e0       	ldi	r25, 0x00	; 0
    262a:	c8 16       	cp	r12, r24
    262c:	d9 06       	cpc	r13, r25
    262e:	0c f4       	brge	.+2      	; 0x2632 <_ZN16PololuQTRSensors14readCalibratedEPjh+0x170>
    2630:	7e cf       	rjmp	.-260    	; 0x252e <_ZN16PololuQTRSensors14readCalibratedEPjh+0x6c>
    2632:	cd b7       	in	r28, 0x3d	; 61
    2634:	de b7       	in	r29, 0x3e	; 62
    2636:	eb e0       	ldi	r30, 0x0B	; 11
    2638:	0c 94 2d 16 	jmp	0x2c5a	; 0x2c5a <__epilogue_restores__+0xe>

0000263c <_ZN16PololuQTRSensors8readLineEPjhh>:
    263c:	a4 e0       	ldi	r26, 0x04	; 4
    263e:	b0 e0       	ldi	r27, 0x00	; 0
    2640:	e4 e2       	ldi	r30, 0x24	; 36
    2642:	f3 e1       	ldi	r31, 0x13	; 19
    2644:	0c 94 0a 16 	jmp	0x2c14	; 0x2c14 <__prologue_saves__>
    2648:	8c 01       	movw	r16, r24
    264a:	f6 2e       	mov	r15, r22
    264c:	e7 2e       	mov	r14, r23
    264e:	2a 83       	std	Y+2, r18	; 0x02
    2650:	0e 94 61 12 	call	0x24c2	; 0x24c2 <_ZN16PololuQTRSensors14readCalibratedEPjh>
    2654:	d8 01       	movw	r26, r16
    2656:	18 96       	adiw	r26, 0x08	; 8
    2658:	bc 91       	ld	r27, X
    265a:	b9 83       	std	Y+1, r27	; 0x01
    265c:	2f 2d       	mov	r18, r15
    265e:	3e 2d       	mov	r19, r14
    2660:	c9 01       	movw	r24, r18
    2662:	8c 01       	movw	r16, r24
    2664:	55 24       	eor	r5, r5
    2666:	44 24       	eor	r4, r4
    2668:	66 24       	eor	r6, r6
    266a:	77 24       	eor	r7, r7
    266c:	43 01       	movw	r8, r6
    266e:	1c 82       	std	Y+4, r1	; 0x04
    2670:	1b 82       	std	Y+3, r1	; 0x03
    2672:	aa 24       	eor	r10, r10
    2674:	bb 24       	eor	r11, r11
    2676:	65 01       	movw	r12, r10
    2678:	b8 ee       	ldi	r27, 0xE8	; 232
    267a:	2b 2e       	mov	r2, r27
    267c:	b3 e0       	ldi	r27, 0x03	; 3
    267e:	3b 2e       	mov	r3, r27
    2680:	32 c0       	rjmp	.+100    	; 0x26e6 <_ZN16PololuQTRSensors8readLineEPjhh+0xaa>
    2682:	f8 01       	movw	r30, r16
    2684:	e0 80       	ld	r14, Z
    2686:	f1 80       	ldd	r15, Z+1	; 0x01
    2688:	fa 81       	ldd	r31, Y+2	; 0x02
    268a:	ff 23       	and	r31, r31
    268c:	21 f0       	breq	.+8      	; 0x2696 <_ZN16PololuQTRSensors8readLineEPjhh+0x5a>
    268e:	91 01       	movw	r18, r2
    2690:	2e 19       	sub	r18, r14
    2692:	3f 09       	sbc	r19, r15
    2694:	79 01       	movw	r14, r18
    2696:	39 ec       	ldi	r19, 0xC9	; 201
    2698:	e3 16       	cp	r14, r19
    269a:	f1 04       	cpc	r15, r1
    269c:	14 f0       	brlt	.+4      	; 0x26a2 <_ZN16PololuQTRSensors8readLineEPjhh+0x66>
    269e:	44 24       	eor	r4, r4
    26a0:	43 94       	inc	r4
    26a2:	83 e3       	ldi	r24, 0x33	; 51
    26a4:	e8 16       	cp	r14, r24
    26a6:	f1 04       	cpc	r15, r1
    26a8:	9c f0       	brlt	.+38     	; 0x26d0 <_ZN16PololuQTRSensors8readLineEPjhh+0x94>
    26aa:	b7 01       	movw	r22, r14
    26ac:	88 27       	eor	r24, r24
    26ae:	77 fd       	sbrc	r23, 7
    26b0:	80 95       	com	r24
    26b2:	98 2f       	mov	r25, r24
    26b4:	a6 01       	movw	r20, r12
    26b6:	95 01       	movw	r18, r10
    26b8:	0e 94 87 15 	call	0x2b0e	; 0x2b0e <__mulsi3>
    26bc:	66 0e       	add	r6, r22
    26be:	77 1e       	adc	r7, r23
    26c0:	88 1e       	adc	r8, r24
    26c2:	99 1e       	adc	r9, r25
    26c4:	ab 81       	ldd	r26, Y+3	; 0x03
    26c6:	bc 81       	ldd	r27, Y+4	; 0x04
    26c8:	ae 0d       	add	r26, r14
    26ca:	bf 1d       	adc	r27, r15
    26cc:	bc 83       	std	Y+4, r27	; 0x04
    26ce:	ab 83       	std	Y+3, r26	; 0x03
    26d0:	53 94       	inc	r5
    26d2:	88 ee       	ldi	r24, 0xE8	; 232
    26d4:	93 e0       	ldi	r25, 0x03	; 3
    26d6:	a0 e0       	ldi	r26, 0x00	; 0
    26d8:	b0 e0       	ldi	r27, 0x00	; 0
    26da:	a8 0e       	add	r10, r24
    26dc:	b9 1e       	adc	r11, r25
    26de:	ca 1e       	adc	r12, r26
    26e0:	db 1e       	adc	r13, r27
    26e2:	0e 5f       	subi	r16, 0xFE	; 254
    26e4:	1f 4f       	sbci	r17, 0xFF	; 255
    26e6:	99 81       	ldd	r25, Y+1	; 0x01
    26e8:	59 16       	cp	r5, r25
    26ea:	58 f2       	brcs	.-106    	; 0x2682 <_ZN16PololuQTRSensors8readLineEPjhh+0x46>
    26ec:	44 20       	and	r4, r4
    26ee:	21 f5       	brne	.+72     	; 0x2738 <_ZN16PololuQTRSensors8readLineEPjhh+0xfc>
    26f0:	69 2f       	mov	r22, r25
    26f2:	70 e0       	ldi	r23, 0x00	; 0
    26f4:	84 ef       	ldi	r24, 0xF4	; 244
    26f6:	91 e0       	ldi	r25, 0x01	; 1
    26f8:	dc 01       	movw	r26, r24
    26fa:	6a 9f       	mul	r22, r26
    26fc:	c0 01       	movw	r24, r0
    26fe:	6b 9f       	mul	r22, r27
    2700:	90 0d       	add	r25, r0
    2702:	7a 9f       	mul	r23, r26
    2704:	90 0d       	add	r25, r0
    2706:	11 24       	eor	r1, r1
    2708:	84 5f       	subi	r24, 0xF4	; 244
    270a:	91 40       	sbci	r25, 0x01	; 1
    270c:	20 91 84 01 	lds	r18, 0x0184
    2710:	30 91 85 01 	lds	r19, 0x0185
    2714:	28 17       	cp	r18, r24
    2716:	39 07       	cpc	r19, r25
    2718:	1c f4       	brge	.+6      	; 0x2720 <_ZN16PololuQTRSensors8readLineEPjhh+0xe4>
    271a:	40 e0       	ldi	r20, 0x00	; 0
    271c:	50 e0       	ldi	r21, 0x00	; 0
    271e:	1a c0       	rjmp	.+52     	; 0x2754 <_ZN16PololuQTRSensors8readLineEPjhh+0x118>
    2720:	88 ee       	ldi	r24, 0xE8	; 232
    2722:	93 e0       	ldi	r25, 0x03	; 3
    2724:	68 9f       	mul	r22, r24
    2726:	a0 01       	movw	r20, r0
    2728:	69 9f       	mul	r22, r25
    272a:	50 0d       	add	r21, r0
    272c:	78 9f       	mul	r23, r24
    272e:	50 0d       	add	r21, r0
    2730:	11 24       	eor	r1, r1
    2732:	48 5e       	subi	r20, 0xE8	; 232
    2734:	53 40       	sbci	r21, 0x03	; 3
    2736:	0e c0       	rjmp	.+28     	; 0x2754 <_ZN16PololuQTRSensors8readLineEPjhh+0x118>
    2738:	eb 81       	ldd	r30, Y+3	; 0x03
    273a:	fc 81       	ldd	r31, Y+4	; 0x04
    273c:	9f 01       	movw	r18, r30
    273e:	40 e0       	ldi	r20, 0x00	; 0
    2740:	50 e0       	ldi	r21, 0x00	; 0
    2742:	c4 01       	movw	r24, r8
    2744:	b3 01       	movw	r22, r6
    2746:	0e 94 cd 15 	call	0x2b9a	; 0x2b9a <__udivmodsi4>
    274a:	a9 01       	movw	r20, r18
    274c:	30 93 85 01 	sts	0x0185, r19
    2750:	20 93 84 01 	sts	0x0184, r18
    2754:	ca 01       	movw	r24, r20
    2756:	24 96       	adiw	r28, 0x04	; 4
    2758:	e2 e1       	ldi	r30, 0x12	; 18
    275a:	0c 94 26 16 	jmp	0x2c4c	; 0x2c4c <__epilogue_restores__>

0000275e <qtr_read_line_white>:
    275e:	9c 01       	movw	r18, r24
    2760:	46 2f       	mov	r20, r22
    2762:	80 91 86 01 	lds	r24, 0x0186
    2766:	90 91 87 01 	lds	r25, 0x0187
    276a:	b9 01       	movw	r22, r18
    276c:	21 e0       	ldi	r18, 0x01	; 1
    276e:	0e 94 1e 13 	call	0x263c	; 0x263c <_ZN16PololuQTRSensors8readLineEPjhh>
    2772:	08 95       	ret

00002774 <qtr_read_line>:
    2774:	9c 01       	movw	r18, r24
    2776:	46 2f       	mov	r20, r22
    2778:	80 91 86 01 	lds	r24, 0x0186
    277c:	90 91 87 01 	lds	r25, 0x0187
    2780:	b9 01       	movw	r22, r18
    2782:	20 e0       	ldi	r18, 0x00	; 0
    2784:	0e 94 1e 13 	call	0x263c	; 0x263c <_ZN16PololuQTRSensors8readLineEPjhh>
    2788:	08 95       	ret

0000278a <qtr_read_calibrated>:
    278a:	9c 01       	movw	r18, r24
    278c:	46 2f       	mov	r20, r22
    278e:	80 91 86 01 	lds	r24, 0x0186
    2792:	90 91 87 01 	lds	r25, 0x0187
    2796:	b9 01       	movw	r22, r18
    2798:	0e 94 61 12 	call	0x24c2	; 0x24c2 <_ZN16PololuQTRSensors14readCalibratedEPjh>
    279c:	08 95       	ret

0000279e <qtr_read>:
    279e:	9c 01       	movw	r18, r24
    27a0:	46 2f       	mov	r20, r22
    27a2:	80 91 86 01 	lds	r24, 0x0186
    27a6:	90 91 87 01 	lds	r25, 0x0187
    27aa:	b9 01       	movw	r22, r18
    27ac:	0e 94 c2 11 	call	0x2384	; 0x2384 <_ZN16PololuQTRSensors4readEPjh>
    27b0:	08 95       	ret

000027b2 <_ZN16PololuQTRSensorsD1Ev>:
    27b2:	cf 93       	push	r28
    27b4:	df 93       	push	r29
    27b6:	ec 01       	movw	r28, r24
    27b8:	8a 81       	ldd	r24, Y+2	; 0x02
    27ba:	9b 81       	ldd	r25, Y+3	; 0x03
    27bc:	00 97       	sbiw	r24, 0x00	; 0
    27be:	11 f0       	breq	.+4      	; 0x27c4 <_ZN16PololuQTRSensorsD1Ev+0x12>
    27c0:	0e 94 f4 16 	call	0x2de8	; 0x2de8 <free>
    27c4:	8e 81       	ldd	r24, Y+6	; 0x06
    27c6:	9f 81       	ldd	r25, Y+7	; 0x07
    27c8:	00 97       	sbiw	r24, 0x00	; 0
    27ca:	11 f0       	breq	.+4      	; 0x27d0 <_ZN16PololuQTRSensorsD1Ev+0x1e>
    27cc:	0e 94 f4 16 	call	0x2de8	; 0x2de8 <free>
    27d0:	88 81       	ld	r24, Y
    27d2:	99 81       	ldd	r25, Y+1	; 0x01
    27d4:	00 97       	sbiw	r24, 0x00	; 0
    27d6:	11 f0       	breq	.+4      	; 0x27dc <_ZN16PololuQTRSensorsD1Ev+0x2a>
    27d8:	0e 94 f4 16 	call	0x2de8	; 0x2de8 <free>
    27dc:	8c 81       	ldd	r24, Y+4	; 0x04
    27de:	9d 81       	ldd	r25, Y+5	; 0x05
    27e0:	00 97       	sbiw	r24, 0x00	; 0
    27e2:	11 f0       	breq	.+4      	; 0x27e8 <_ZN16PololuQTRSensorsD1Ev+0x36>
    27e4:	0e 94 f4 16 	call	0x2de8	; 0x2de8 <free>
    27e8:	df 91       	pop	r29
    27ea:	cf 91       	pop	r28
    27ec:	08 95       	ret

000027ee <_ZN16PololuQTRSensorsD2Ev>:
    27ee:	cf 93       	push	r28
    27f0:	df 93       	push	r29
    27f2:	ec 01       	movw	r28, r24
    27f4:	8a 81       	ldd	r24, Y+2	; 0x02
    27f6:	9b 81       	ldd	r25, Y+3	; 0x03
    27f8:	00 97       	sbiw	r24, 0x00	; 0
    27fa:	11 f0       	breq	.+4      	; 0x2800 <_ZN16PololuQTRSensorsD2Ev+0x12>
    27fc:	0e 94 f4 16 	call	0x2de8	; 0x2de8 <free>
    2800:	8e 81       	ldd	r24, Y+6	; 0x06
    2802:	9f 81       	ldd	r25, Y+7	; 0x07
    2804:	00 97       	sbiw	r24, 0x00	; 0
    2806:	11 f0       	breq	.+4      	; 0x280c <_ZN16PololuQTRSensorsD2Ev+0x1e>
    2808:	0e 94 f4 16 	call	0x2de8	; 0x2de8 <free>
    280c:	88 81       	ld	r24, Y
    280e:	99 81       	ldd	r25, Y+1	; 0x01
    2810:	00 97       	sbiw	r24, 0x00	; 0
    2812:	11 f0       	breq	.+4      	; 0x2818 <_ZN16PololuQTRSensorsD2Ev+0x2a>
    2814:	0e 94 f4 16 	call	0x2de8	; 0x2de8 <free>
    2818:	8c 81       	ldd	r24, Y+4	; 0x04
    281a:	9d 81       	ldd	r25, Y+5	; 0x05
    281c:	00 97       	sbiw	r24, 0x00	; 0
    281e:	11 f0       	breq	.+4      	; 0x2824 <_ZN16PololuQTRSensorsD2Ev+0x36>
    2820:	0e 94 f4 16 	call	0x2de8	; 0x2de8 <free>
    2824:	df 91       	pop	r29
    2826:	cf 91       	pop	r28
    2828:	08 95       	ret

0000282a <_ZN16PololuQTRSensors16calibrateOnOrOffEPPjS1_h>:
    282a:	a3 e6       	ldi	r26, 0x63	; 99
    282c:	b0 e0       	ldi	r27, 0x00	; 0
    282e:	eb e1       	ldi	r30, 0x1B	; 27
    2830:	f4 e1       	ldi	r31, 0x14	; 20
    2832:	0c 94 0a 16 	jmp	0x2c14	; 0x2c14 <__prologue_saves__>
    2836:	7c 01       	movw	r14, r24
    2838:	5b 01       	movw	r10, r22
    283a:	6a 01       	movw	r12, r20
    283c:	a2 96       	adiw	r28, 0x22	; 34
    283e:	2f af       	std	Y+63, r18	; 0x3f
    2840:	a2 97       	sbiw	r28, 0x22	; 34
    2842:	da 01       	movw	r26, r20
    2844:	8d 91       	ld	r24, X+
    2846:	9c 91       	ld	r25, X
    2848:	89 2b       	or	r24, r25
    284a:	11 f5       	brne	.+68     	; 0x2890 <_ZN16PololuQTRSensors16calibrateOnOrOffEPPjS1_h+0x66>
    284c:	f7 01       	movw	r30, r14
    284e:	80 85       	ldd	r24, Z+8	; 0x08
    2850:	90 e0       	ldi	r25, 0x00	; 0
    2852:	88 0f       	add	r24, r24
    2854:	99 1f       	adc	r25, r25
    2856:	0e 94 47 16 	call	0x2c8e	; 0x2c8e <malloc>
    285a:	d6 01       	movw	r26, r12
    285c:	8d 93       	st	X+, r24
    285e:	9c 93       	st	X, r25
    2860:	00 97       	sbiw	r24, 0x00	; 0
    2862:	09 f4       	brne	.+2      	; 0x2866 <_ZN16PololuQTRSensors16calibrateOnOrOffEPPjS1_h+0x3c>
    2864:	df c0       	rjmp	.+446    	; 0x2a24 <_ZN16PololuQTRSensors16calibrateOnOrOffEPPjS1_h+0x1fa>
    2866:	20 e0       	ldi	r18, 0x00	; 0
    2868:	30 e0       	ldi	r19, 0x00	; 0
    286a:	0c c0       	rjmp	.+24     	; 0x2884 <_ZN16PololuQTRSensors16calibrateOnOrOffEPPjS1_h+0x5a>
    286c:	c9 01       	movw	r24, r18
    286e:	88 0f       	add	r24, r24
    2870:	99 1f       	adc	r25, r25
    2872:	d6 01       	movw	r26, r12
    2874:	ed 91       	ld	r30, X+
    2876:	fc 91       	ld	r31, X
    2878:	e8 0f       	add	r30, r24
    287a:	f9 1f       	adc	r31, r25
    287c:	11 82       	std	Z+1, r1	; 0x01
    287e:	10 82       	st	Z, r1
    2880:	2f 5f       	subi	r18, 0xFF	; 255
    2882:	3f 4f       	sbci	r19, 0xFF	; 255
    2884:	f7 01       	movw	r30, r14
    2886:	80 85       	ldd	r24, Z+8	; 0x08
    2888:	90 e0       	ldi	r25, 0x00	; 0
    288a:	28 17       	cp	r18, r24
    288c:	39 07       	cpc	r19, r25
    288e:	74 f3       	brlt	.-36     	; 0x286c <_ZN16PololuQTRSensors16calibrateOnOrOffEPPjS1_h+0x42>
    2890:	d5 01       	movw	r26, r10
    2892:	8d 91       	ld	r24, X+
    2894:	9c 91       	ld	r25, X
    2896:	89 2b       	or	r24, r25
    2898:	89 f0       	breq	.+34     	; 0x28bc <_ZN16PololuQTRSensors16calibrateOnOrOffEPPjS1_h+0x92>
    289a:	00 e0       	ldi	r16, 0x00	; 0
    289c:	10 e0       	ldi	r17, 0x00	; 0
    289e:	3e 01       	movw	r6, r28
    28a0:	08 94       	sec
    28a2:	61 1c       	adc	r6, r1
    28a4:	71 1c       	adc	r7, r1
    28a6:	41 e4       	ldi	r20, 0x41	; 65
    28a8:	24 2e       	mov	r2, r20
    28aa:	31 2c       	mov	r3, r1
    28ac:	2c 0e       	add	r2, r28
    28ae:	3d 1e       	adc	r3, r29
    28b0:	31 e2       	ldi	r19, 0x21	; 33
    28b2:	43 2e       	mov	r4, r19
    28b4:	51 2c       	mov	r5, r1
    28b6:	4c 0e       	add	r4, r28
    28b8:	5d 1e       	adc	r5, r29
    28ba:	28 c0       	rjmp	.+80     	; 0x290c <_ZN16PololuQTRSensors16calibrateOnOrOffEPPjS1_h+0xe2>
    28bc:	f7 01       	movw	r30, r14
    28be:	80 85       	ldd	r24, Z+8	; 0x08
    28c0:	90 e0       	ldi	r25, 0x00	; 0
    28c2:	88 0f       	add	r24, r24
    28c4:	99 1f       	adc	r25, r25
    28c6:	0e 94 47 16 	call	0x2c8e	; 0x2c8e <malloc>
    28ca:	d5 01       	movw	r26, r10
    28cc:	8d 93       	st	X+, r24
    28ce:	9c 93       	st	X, r25
    28d0:	00 97       	sbiw	r24, 0x00	; 0
    28d2:	09 f4       	brne	.+2      	; 0x28d6 <_ZN16PololuQTRSensors16calibrateOnOrOffEPPjS1_h+0xac>
    28d4:	a7 c0       	rjmp	.+334    	; 0x2a24 <_ZN16PololuQTRSensors16calibrateOnOrOffEPPjS1_h+0x1fa>
    28d6:	20 e0       	ldi	r18, 0x00	; 0
    28d8:	30 e0       	ldi	r19, 0x00	; 0
    28da:	11 c0       	rjmp	.+34     	; 0x28fe <_ZN16PololuQTRSensors16calibrateOnOrOffEPPjS1_h+0xd4>
    28dc:	c9 01       	movw	r24, r18
    28de:	88 0f       	add	r24, r24
    28e0:	99 1f       	adc	r25, r25
    28e2:	d5 01       	movw	r26, r10
    28e4:	ed 91       	ld	r30, X+
    28e6:	fc 91       	ld	r31, X
    28e8:	e8 0f       	add	r30, r24
    28ea:	f9 1f       	adc	r31, r25
    28ec:	d7 01       	movw	r26, r14
    28ee:	1e 96       	adiw	r26, 0x0e	; 14
    28f0:	8d 91       	ld	r24, X+
    28f2:	9c 91       	ld	r25, X
    28f4:	1f 97       	sbiw	r26, 0x0f	; 15
    28f6:	91 83       	std	Z+1, r25	; 0x01
    28f8:	80 83       	st	Z, r24
    28fa:	2f 5f       	subi	r18, 0xFF	; 255
    28fc:	3f 4f       	sbci	r19, 0xFF	; 255
    28fe:	f7 01       	movw	r30, r14
    2900:	80 85       	ldd	r24, Z+8	; 0x08
    2902:	90 e0       	ldi	r25, 0x00	; 0
    2904:	28 17       	cp	r18, r24
    2906:	39 07       	cpc	r19, r25
    2908:	4c f3       	brlt	.-46     	; 0x28dc <_ZN16PololuQTRSensors16calibrateOnOrOffEPPjS1_h+0xb2>
    290a:	c7 cf       	rjmp	.-114    	; 0x289a <_ZN16PololuQTRSensors16calibrateOnOrOffEPPjS1_h+0x70>
    290c:	c7 01       	movw	r24, r14
    290e:	b3 01       	movw	r22, r6
    2910:	a2 96       	adiw	r28, 0x22	; 34
    2912:	4f ad       	ldd	r20, Y+63	; 0x3f
    2914:	a2 97       	sbiw	r28, 0x22	; 34
    2916:	0e 94 c2 11 	call	0x2384	; 0x2384 <_ZN16PololuQTRSensors4readEPjh>
    291a:	d7 01       	movw	r26, r14
    291c:	18 96       	adiw	r26, 0x08	; 8
    291e:	8c 91       	ld	r24, X
    2920:	88 2e       	mov	r8, r24
    2922:	99 24       	eor	r9, r9
    2924:	a1 01       	movw	r20, r2
    2926:	f3 01       	movw	r30, r6
    2928:	a4 96       	adiw	r28, 0x24	; 36
    292a:	5f ae       	std	Y+63, r5	; 0x3f
    292c:	4e ae       	std	Y+62, r4	; 0x3e
    292e:	a4 97       	sbiw	r28, 0x24	; 36
    2930:	60 e0       	ldi	r22, 0x00	; 0
    2932:	70 e0       	ldi	r23, 0x00	; 0
    2934:	34 c0       	rjmp	.+104    	; 0x299e <_ZN16PololuQTRSensors16calibrateOnOrOffEPPjS1_h+0x174>
    2936:	01 15       	cp	r16, r1
    2938:	11 05       	cpc	r17, r1
    293a:	59 f0       	breq	.+22     	; 0x2952 <_ZN16PololuQTRSensors16calibrateOnOrOffEPPjS1_h+0x128>
    293c:	a4 96       	adiw	r28, 0x24	; 36
    293e:	ae ad       	ldd	r26, Y+62	; 0x3e
    2940:	bf ad       	ldd	r27, Y+63	; 0x3f
    2942:	a4 97       	sbiw	r28, 0x24	; 36
    2944:	2d 91       	ld	r18, X+
    2946:	3c 91       	ld	r19, X
    2948:	80 81       	ld	r24, Z
    294a:	91 81       	ldd	r25, Z+1	; 0x01
    294c:	28 17       	cp	r18, r24
    294e:	39 07       	cpc	r19, r25
    2950:	58 f4       	brcc	.+22     	; 0x2968 <_ZN16PololuQTRSensors16calibrateOnOrOffEPPjS1_h+0x13e>
    2952:	80 81       	ld	r24, Z
    2954:	91 81       	ldd	r25, Z+1	; 0x01
    2956:	a4 96       	adiw	r28, 0x24	; 36
    2958:	ae ad       	ldd	r26, Y+62	; 0x3e
    295a:	bf ad       	ldd	r27, Y+63	; 0x3f
    295c:	a4 97       	sbiw	r28, 0x24	; 36
    295e:	8d 93       	st	X+, r24
    2960:	9c 93       	st	X, r25
    2962:	01 15       	cp	r16, r1
    2964:	11 05       	cpc	r17, r1
    2966:	41 f0       	breq	.+16     	; 0x2978 <_ZN16PololuQTRSensors16calibrateOnOrOffEPPjS1_h+0x14e>
    2968:	da 01       	movw	r26, r20
    296a:	2d 91       	ld	r18, X+
    296c:	3c 91       	ld	r19, X
    296e:	80 81       	ld	r24, Z
    2970:	91 81       	ldd	r25, Z+1	; 0x01
    2972:	82 17       	cp	r24, r18
    2974:	93 07       	cpc	r25, r19
    2976:	28 f4       	brcc	.+10     	; 0x2982 <_ZN16PololuQTRSensors16calibrateOnOrOffEPPjS1_h+0x158>
    2978:	80 81       	ld	r24, Z
    297a:	91 81       	ldd	r25, Z+1	; 0x01
    297c:	da 01       	movw	r26, r20
    297e:	8d 93       	st	X+, r24
    2980:	9c 93       	st	X, r25
    2982:	6f 5f       	subi	r22, 0xFF	; 255
    2984:	7f 4f       	sbci	r23, 0xFF	; 255
    2986:	4e 5f       	subi	r20, 0xFE	; 254
    2988:	5f 4f       	sbci	r21, 0xFF	; 255
    298a:	32 96       	adiw	r30, 0x02	; 2
    298c:	a4 96       	adiw	r28, 0x24	; 36
    298e:	8e ad       	ldd	r24, Y+62	; 0x3e
    2990:	9f ad       	ldd	r25, Y+63	; 0x3f
    2992:	a4 97       	sbiw	r28, 0x24	; 36
    2994:	02 96       	adiw	r24, 0x02	; 2
    2996:	a4 96       	adiw	r28, 0x24	; 36
    2998:	9f af       	std	Y+63, r25	; 0x3f
    299a:	8e af       	std	Y+62, r24	; 0x3e
    299c:	a4 97       	sbiw	r28, 0x24	; 36
    299e:	68 15       	cp	r22, r8
    29a0:	79 05       	cpc	r23, r9
    29a2:	4c f2       	brlt	.-110    	; 0x2936 <_ZN16PololuQTRSensors16calibrateOnOrOffEPPjS1_h+0x10c>
    29a4:	0f 5f       	subi	r16, 0xFF	; 255
    29a6:	1f 4f       	sbci	r17, 0xFF	; 255
    29a8:	0a 30       	cpi	r16, 0x0A	; 10
    29aa:	11 05       	cpc	r17, r1
    29ac:	09 f0       	breq	.+2      	; 0x29b0 <_ZN16PololuQTRSensors16calibrateOnOrOffEPPjS1_h+0x186>
    29ae:	ae cf       	rjmp	.-164    	; 0x290c <_ZN16PololuQTRSensors16calibrateOnOrOffEPPjS1_h+0xe2>
    29b0:	40 e0       	ldi	r20, 0x00	; 0
    29b2:	50 e0       	ldi	r21, 0x00	; 0
    29b4:	20 e0       	ldi	r18, 0x00	; 0
    29b6:	30 e0       	ldi	r19, 0x00	; 0
    29b8:	8e 01       	movw	r16, r28
    29ba:	0f 5b       	subi	r16, 0xBF	; 191
    29bc:	1f 4f       	sbci	r17, 0xFF	; 255
    29be:	be 01       	movw	r22, r28
    29c0:	6f 5d       	subi	r22, 0xDF	; 223
    29c2:	7f 4f       	sbci	r23, 0xFF	; 255
    29c4:	28 c0       	rjmp	.+80     	; 0x2a16 <_ZN16PololuQTRSensors16calibrateOnOrOffEPPjS1_h+0x1ec>
    29c6:	f8 01       	movw	r30, r16
    29c8:	e2 0f       	add	r30, r18
    29ca:	f3 1f       	adc	r31, r19
    29cc:	80 80       	ld	r8, Z
    29ce:	91 80       	ldd	r9, Z+1	; 0x01
    29d0:	f6 01       	movw	r30, r12
    29d2:	a0 81       	ld	r26, Z
    29d4:	b1 81       	ldd	r27, Z+1	; 0x01
    29d6:	a2 0f       	add	r26, r18
    29d8:	b3 1f       	adc	r27, r19
    29da:	8d 91       	ld	r24, X+
    29dc:	9c 91       	ld	r25, X
    29de:	11 97       	sbiw	r26, 0x01	; 1
    29e0:	88 15       	cp	r24, r8
    29e2:	99 05       	cpc	r25, r9
    29e4:	10 f4       	brcc	.+4      	; 0x29ea <_ZN16PololuQTRSensors16calibrateOnOrOffEPPjS1_h+0x1c0>
    29e6:	8d 92       	st	X+, r8
    29e8:	9c 92       	st	X, r9
    29ea:	fb 01       	movw	r30, r22
    29ec:	e2 0f       	add	r30, r18
    29ee:	f3 1f       	adc	r31, r19
    29f0:	80 80       	ld	r8, Z
    29f2:	91 80       	ldd	r9, Z+1	; 0x01
    29f4:	f5 01       	movw	r30, r10
    29f6:	a0 81       	ld	r26, Z
    29f8:	b1 81       	ldd	r27, Z+1	; 0x01
    29fa:	a2 0f       	add	r26, r18
    29fc:	b3 1f       	adc	r27, r19
    29fe:	8d 91       	ld	r24, X+
    2a00:	9c 91       	ld	r25, X
    2a02:	11 97       	sbiw	r26, 0x01	; 1
    2a04:	88 16       	cp	r8, r24
    2a06:	99 06       	cpc	r9, r25
    2a08:	10 f4       	brcc	.+4      	; 0x2a0e <_ZN16PololuQTRSensors16calibrateOnOrOffEPPjS1_h+0x1e4>
    2a0a:	8d 92       	st	X+, r8
    2a0c:	9c 92       	st	X, r9
    2a0e:	4f 5f       	subi	r20, 0xFF	; 255
    2a10:	5f 4f       	sbci	r21, 0xFF	; 255
    2a12:	2e 5f       	subi	r18, 0xFE	; 254
    2a14:	3f 4f       	sbci	r19, 0xFF	; 255
    2a16:	d7 01       	movw	r26, r14
    2a18:	18 96       	adiw	r26, 0x08	; 8
    2a1a:	8c 91       	ld	r24, X
    2a1c:	90 e0       	ldi	r25, 0x00	; 0
    2a1e:	48 17       	cp	r20, r24
    2a20:	59 07       	cpc	r21, r25
    2a22:	8c f2       	brlt	.-94     	; 0x29c6 <_ZN16PololuQTRSensors16calibrateOnOrOffEPPjS1_h+0x19c>
    2a24:	cd 59       	subi	r28, 0x9D	; 157
    2a26:	df 4f       	sbci	r29, 0xFF	; 255
    2a28:	e2 e1       	ldi	r30, 0x12	; 18
    2a2a:	0c 94 26 16 	jmp	0x2c4c	; 0x2c4c <__epilogue_restores__>

00002a2e <_ZN16PololuQTRSensors9calibrateEh>:
    2a2e:	1f 93       	push	r17
    2a30:	cf 93       	push	r28
    2a32:	df 93       	push	r29
    2a34:	ec 01       	movw	r28, r24
    2a36:	16 2f       	mov	r17, r22
    2a38:	86 2f       	mov	r24, r22
    2a3a:	81 50       	subi	r24, 0x01	; 1
    2a3c:	82 30       	cpi	r24, 0x02	; 2
    2a3e:	40 f4       	brcc	.+16     	; 0x2a50 <_ZN16PololuQTRSensors9calibrateEh+0x22>
    2a40:	ae 01       	movw	r20, r28
    2a42:	4e 5f       	subi	r20, 0xFE	; 254
    2a44:	5f 4f       	sbci	r21, 0xFF	; 255
    2a46:	ce 01       	movw	r24, r28
    2a48:	be 01       	movw	r22, r28
    2a4a:	21 e0       	ldi	r18, 0x01	; 1
    2a4c:	0e 94 15 14 	call	0x282a	; 0x282a <_ZN16PololuQTRSensors16calibrateOnOrOffEPPjS1_h>
    2a50:	12 30       	cpi	r17, 0x02	; 2
    2a52:	11 f0       	breq	.+4      	; 0x2a58 <_ZN16PololuQTRSensors9calibrateEh+0x2a>
    2a54:	11 23       	and	r17, r17
    2a56:	49 f4       	brne	.+18     	; 0x2a6a <_ZN16PololuQTRSensors9calibrateEh+0x3c>
    2a58:	ae 01       	movw	r20, r28
    2a5a:	4a 5f       	subi	r20, 0xFA	; 250
    2a5c:	5f 4f       	sbci	r21, 0xFF	; 255
    2a5e:	ce 01       	movw	r24, r28
    2a60:	24 96       	adiw	r28, 0x04	; 4
    2a62:	be 01       	movw	r22, r28
    2a64:	20 e0       	ldi	r18, 0x00	; 0
    2a66:	0e 94 15 14 	call	0x282a	; 0x282a <_ZN16PololuQTRSensors16calibrateOnOrOffEPPjS1_h>
    2a6a:	df 91       	pop	r29
    2a6c:	cf 91       	pop	r28
    2a6e:	1f 91       	pop	r17
    2a70:	08 95       	ret

00002a72 <qtr_calibrate>:
    2a72:	68 2f       	mov	r22, r24
    2a74:	80 91 86 01 	lds	r24, 0x0186
    2a78:	90 91 87 01 	lds	r25, 0x0187
    2a7c:	0e 94 17 15 	call	0x2a2e	; 0x2a2e <_ZN16PololuQTRSensors9calibrateEh>
    2a80:	08 95       	ret

00002a82 <qtr_analog_init>:
    2a82:	a0 e0       	ldi	r26, 0x00	; 0
    2a84:	b0 e0       	ldi	r27, 0x00	; 0
    2a86:	e7 e4       	ldi	r30, 0x47	; 71
    2a88:	f5 e1       	ldi	r31, 0x15	; 21
    2a8a:	0c 94 15 16 	jmp	0x2c2a	; 0x2c2a <__prologue_saves__+0x16>
    2a8e:	8c 01       	movw	r16, r24
    2a90:	f6 2e       	mov	r15, r22
    2a92:	e4 2e       	mov	r14, r20
    2a94:	d2 2e       	mov	r13, r18
    2a96:	83 e2       	ldi	r24, 0x23	; 35
    2a98:	90 e0       	ldi	r25, 0x00	; 0
    2a9a:	0e 94 47 16 	call	0x2c8e	; 0x2c8e <malloc>
    2a9e:	ec 01       	movw	r28, r24
    2aa0:	00 97       	sbiw	r24, 0x00	; 0
    2aa2:	11 f4       	brne	.+4      	; 0x2aa8 <qtr_analog_init+0x26>
    2aa4:	80 e0       	ldi	r24, 0x00	; 0
    2aa6:	0b c0       	rjmp	.+22     	; 0x2abe <qtr_analog_init+0x3c>
    2aa8:	b8 01       	movw	r22, r16
    2aaa:	4f 2d       	mov	r20, r15
    2aac:	2e 2d       	mov	r18, r14
    2aae:	0d 2d       	mov	r16, r13
    2ab0:	0e 94 06 11 	call	0x220c	; 0x220c <_ZN22PololuQTRSensorsAnalog4initEPhhhh>
    2ab4:	d0 93 87 01 	sts	0x0187, r29
    2ab8:	c0 93 86 01 	sts	0x0186, r28
    2abc:	81 e0       	ldi	r24, 0x01	; 1
    2abe:	cd b7       	in	r28, 0x3d	; 61
    2ac0:	de b7       	in	r29, 0x3e	; 62
    2ac2:	e7 e0       	ldi	r30, 0x07	; 7
    2ac4:	0c 94 31 16 	jmp	0x2c62	; 0x2c62 <__epilogue_restores__+0x16>

00002ac8 <qtr_rc_init>:
    2ac8:	a0 e0       	ldi	r26, 0x00	; 0
    2aca:	b0 e0       	ldi	r27, 0x00	; 0
    2acc:	ea e6       	ldi	r30, 0x6A	; 106
    2ace:	f5 e1       	ldi	r31, 0x15	; 21
    2ad0:	0c 94 14 16 	jmp	0x2c28	; 0x2c28 <__prologue_saves__+0x14>
    2ad4:	8c 01       	movw	r16, r24
    2ad6:	d6 2e       	mov	r13, r22
    2ad8:	7a 01       	movw	r14, r20
    2ada:	c2 2e       	mov	r12, r18
    2adc:	84 e4       	ldi	r24, 0x44	; 68
    2ade:	90 e0       	ldi	r25, 0x00	; 0
    2ae0:	0e 94 47 16 	call	0x2c8e	; 0x2c8e <malloc>
    2ae4:	ec 01       	movw	r28, r24
    2ae6:	00 97       	sbiw	r24, 0x00	; 0
    2ae8:	11 f4       	brne	.+4      	; 0x2aee <qtr_rc_init+0x26>
    2aea:	80 e0       	ldi	r24, 0x00	; 0
    2aec:	0b c0       	rjmp	.+22     	; 0x2b04 <qtr_rc_init+0x3c>
    2aee:	b8 01       	movw	r22, r16
    2af0:	4d 2d       	mov	r20, r13
    2af2:	97 01       	movw	r18, r14
    2af4:	0c 2d       	mov	r16, r12
    2af6:	0e 94 ba 0f 	call	0x1f74	; 0x1f74 <_ZN18PololuQTRSensorsRC4initEPhhjh>
    2afa:	d0 93 87 01 	sts	0x0187, r29
    2afe:	c0 93 86 01 	sts	0x0186, r28
    2b02:	81 e0       	ldi	r24, 0x01	; 1
    2b04:	cd b7       	in	r28, 0x3d	; 61
    2b06:	de b7       	in	r29, 0x3e	; 62
    2b08:	e8 e0       	ldi	r30, 0x08	; 8
    2b0a:	0c 94 30 16 	jmp	0x2c60	; 0x2c60 <__epilogue_restores__+0x14>

00002b0e <__mulsi3>:
    2b0e:	62 9f       	mul	r22, r18
    2b10:	d0 01       	movw	r26, r0
    2b12:	73 9f       	mul	r23, r19
    2b14:	f0 01       	movw	r30, r0
    2b16:	82 9f       	mul	r24, r18
    2b18:	e0 0d       	add	r30, r0
    2b1a:	f1 1d       	adc	r31, r1
    2b1c:	64 9f       	mul	r22, r20
    2b1e:	e0 0d       	add	r30, r0
    2b20:	f1 1d       	adc	r31, r1
    2b22:	92 9f       	mul	r25, r18
    2b24:	f0 0d       	add	r31, r0
    2b26:	83 9f       	mul	r24, r19
    2b28:	f0 0d       	add	r31, r0
    2b2a:	74 9f       	mul	r23, r20
    2b2c:	f0 0d       	add	r31, r0
    2b2e:	65 9f       	mul	r22, r21
    2b30:	f0 0d       	add	r31, r0
    2b32:	99 27       	eor	r25, r25
    2b34:	72 9f       	mul	r23, r18
    2b36:	b0 0d       	add	r27, r0
    2b38:	e1 1d       	adc	r30, r1
    2b3a:	f9 1f       	adc	r31, r25
    2b3c:	63 9f       	mul	r22, r19
    2b3e:	b0 0d       	add	r27, r0
    2b40:	e1 1d       	adc	r30, r1
    2b42:	f9 1f       	adc	r31, r25
    2b44:	bd 01       	movw	r22, r26
    2b46:	cf 01       	movw	r24, r30
    2b48:	11 24       	eor	r1, r1
    2b4a:	08 95       	ret

00002b4c <__udivmodhi4>:
    2b4c:	aa 1b       	sub	r26, r26
    2b4e:	bb 1b       	sub	r27, r27
    2b50:	51 e1       	ldi	r21, 0x11	; 17
    2b52:	07 c0       	rjmp	.+14     	; 0x2b62 <__udivmodhi4_ep>

00002b54 <__udivmodhi4_loop>:
    2b54:	aa 1f       	adc	r26, r26
    2b56:	bb 1f       	adc	r27, r27
    2b58:	a6 17       	cp	r26, r22
    2b5a:	b7 07       	cpc	r27, r23
    2b5c:	10 f0       	brcs	.+4      	; 0x2b62 <__udivmodhi4_ep>
    2b5e:	a6 1b       	sub	r26, r22
    2b60:	b7 0b       	sbc	r27, r23

00002b62 <__udivmodhi4_ep>:
    2b62:	88 1f       	adc	r24, r24
    2b64:	99 1f       	adc	r25, r25
    2b66:	5a 95       	dec	r21
    2b68:	a9 f7       	brne	.-22     	; 0x2b54 <__udivmodhi4_loop>
    2b6a:	80 95       	com	r24
    2b6c:	90 95       	com	r25
    2b6e:	bc 01       	movw	r22, r24
    2b70:	cd 01       	movw	r24, r26
    2b72:	08 95       	ret

00002b74 <__divmodhi4>:
    2b74:	97 fb       	bst	r25, 7
    2b76:	09 2e       	mov	r0, r25
    2b78:	07 26       	eor	r0, r23
    2b7a:	0a d0       	rcall	.+20     	; 0x2b90 <__divmodhi4_neg1>
    2b7c:	77 fd       	sbrc	r23, 7
    2b7e:	04 d0       	rcall	.+8      	; 0x2b88 <__divmodhi4_neg2>
    2b80:	e5 df       	rcall	.-54     	; 0x2b4c <__udivmodhi4>
    2b82:	06 d0       	rcall	.+12     	; 0x2b90 <__divmodhi4_neg1>
    2b84:	00 20       	and	r0, r0
    2b86:	1a f4       	brpl	.+6      	; 0x2b8e <__divmodhi4_exit>

00002b88 <__divmodhi4_neg2>:
    2b88:	70 95       	com	r23
    2b8a:	61 95       	neg	r22
    2b8c:	7f 4f       	sbci	r23, 0xFF	; 255

00002b8e <__divmodhi4_exit>:
    2b8e:	08 95       	ret

00002b90 <__divmodhi4_neg1>:
    2b90:	f6 f7       	brtc	.-4      	; 0x2b8e <__divmodhi4_exit>
    2b92:	90 95       	com	r25
    2b94:	81 95       	neg	r24
    2b96:	9f 4f       	sbci	r25, 0xFF	; 255
    2b98:	08 95       	ret

00002b9a <__udivmodsi4>:
    2b9a:	a1 e2       	ldi	r26, 0x21	; 33
    2b9c:	1a 2e       	mov	r1, r26
    2b9e:	aa 1b       	sub	r26, r26
    2ba0:	bb 1b       	sub	r27, r27
    2ba2:	fd 01       	movw	r30, r26
    2ba4:	0d c0       	rjmp	.+26     	; 0x2bc0 <__udivmodsi4_ep>

00002ba6 <__udivmodsi4_loop>:
    2ba6:	aa 1f       	adc	r26, r26
    2ba8:	bb 1f       	adc	r27, r27
    2baa:	ee 1f       	adc	r30, r30
    2bac:	ff 1f       	adc	r31, r31
    2bae:	a2 17       	cp	r26, r18
    2bb0:	b3 07       	cpc	r27, r19
    2bb2:	e4 07       	cpc	r30, r20
    2bb4:	f5 07       	cpc	r31, r21
    2bb6:	20 f0       	brcs	.+8      	; 0x2bc0 <__udivmodsi4_ep>
    2bb8:	a2 1b       	sub	r26, r18
    2bba:	b3 0b       	sbc	r27, r19
    2bbc:	e4 0b       	sbc	r30, r20
    2bbe:	f5 0b       	sbc	r31, r21

00002bc0 <__udivmodsi4_ep>:
    2bc0:	66 1f       	adc	r22, r22
    2bc2:	77 1f       	adc	r23, r23
    2bc4:	88 1f       	adc	r24, r24
    2bc6:	99 1f       	adc	r25, r25
    2bc8:	1a 94       	dec	r1
    2bca:	69 f7       	brne	.-38     	; 0x2ba6 <__udivmodsi4_loop>
    2bcc:	60 95       	com	r22
    2bce:	70 95       	com	r23
    2bd0:	80 95       	com	r24
    2bd2:	90 95       	com	r25
    2bd4:	9b 01       	movw	r18, r22
    2bd6:	ac 01       	movw	r20, r24
    2bd8:	bd 01       	movw	r22, r26
    2bda:	cf 01       	movw	r24, r30
    2bdc:	08 95       	ret

00002bde <__divmodsi4>:
    2bde:	97 fb       	bst	r25, 7
    2be0:	09 2e       	mov	r0, r25
    2be2:	05 26       	eor	r0, r21
    2be4:	0e d0       	rcall	.+28     	; 0x2c02 <__divmodsi4_neg1>
    2be6:	57 fd       	sbrc	r21, 7
    2be8:	04 d0       	rcall	.+8      	; 0x2bf2 <__divmodsi4_neg2>
    2bea:	d7 df       	rcall	.-82     	; 0x2b9a <__udivmodsi4>
    2bec:	0a d0       	rcall	.+20     	; 0x2c02 <__divmodsi4_neg1>
    2bee:	00 1c       	adc	r0, r0
    2bf0:	38 f4       	brcc	.+14     	; 0x2c00 <__divmodsi4_exit>

00002bf2 <__divmodsi4_neg2>:
    2bf2:	50 95       	com	r21
    2bf4:	40 95       	com	r20
    2bf6:	30 95       	com	r19
    2bf8:	21 95       	neg	r18
    2bfa:	3f 4f       	sbci	r19, 0xFF	; 255
    2bfc:	4f 4f       	sbci	r20, 0xFF	; 255
    2bfe:	5f 4f       	sbci	r21, 0xFF	; 255

00002c00 <__divmodsi4_exit>:
    2c00:	08 95       	ret

00002c02 <__divmodsi4_neg1>:
    2c02:	f6 f7       	brtc	.-4      	; 0x2c00 <__divmodsi4_exit>
    2c04:	90 95       	com	r25
    2c06:	80 95       	com	r24
    2c08:	70 95       	com	r23
    2c0a:	61 95       	neg	r22
    2c0c:	7f 4f       	sbci	r23, 0xFF	; 255
    2c0e:	8f 4f       	sbci	r24, 0xFF	; 255
    2c10:	9f 4f       	sbci	r25, 0xFF	; 255
    2c12:	08 95       	ret

00002c14 <__prologue_saves__>:
    2c14:	2f 92       	push	r2
    2c16:	3f 92       	push	r3
    2c18:	4f 92       	push	r4
    2c1a:	5f 92       	push	r5
    2c1c:	6f 92       	push	r6
    2c1e:	7f 92       	push	r7
    2c20:	8f 92       	push	r8
    2c22:	9f 92       	push	r9
    2c24:	af 92       	push	r10
    2c26:	bf 92       	push	r11
    2c28:	cf 92       	push	r12
    2c2a:	df 92       	push	r13
    2c2c:	ef 92       	push	r14
    2c2e:	ff 92       	push	r15
    2c30:	0f 93       	push	r16
    2c32:	1f 93       	push	r17
    2c34:	cf 93       	push	r28
    2c36:	df 93       	push	r29
    2c38:	cd b7       	in	r28, 0x3d	; 61
    2c3a:	de b7       	in	r29, 0x3e	; 62
    2c3c:	ca 1b       	sub	r28, r26
    2c3e:	db 0b       	sbc	r29, r27
    2c40:	0f b6       	in	r0, 0x3f	; 63
    2c42:	f8 94       	cli
    2c44:	de bf       	out	0x3e, r29	; 62
    2c46:	0f be       	out	0x3f, r0	; 63
    2c48:	cd bf       	out	0x3d, r28	; 61
    2c4a:	09 94       	ijmp

00002c4c <__epilogue_restores__>:
    2c4c:	2a 88       	ldd	r2, Y+18	; 0x12
    2c4e:	39 88       	ldd	r3, Y+17	; 0x11
    2c50:	48 88       	ldd	r4, Y+16	; 0x10
    2c52:	5f 84       	ldd	r5, Y+15	; 0x0f
    2c54:	6e 84       	ldd	r6, Y+14	; 0x0e
    2c56:	7d 84       	ldd	r7, Y+13	; 0x0d
    2c58:	8c 84       	ldd	r8, Y+12	; 0x0c
    2c5a:	9b 84       	ldd	r9, Y+11	; 0x0b
    2c5c:	aa 84       	ldd	r10, Y+10	; 0x0a
    2c5e:	b9 84       	ldd	r11, Y+9	; 0x09
    2c60:	c8 84       	ldd	r12, Y+8	; 0x08
    2c62:	df 80       	ldd	r13, Y+7	; 0x07
    2c64:	ee 80       	ldd	r14, Y+6	; 0x06
    2c66:	fd 80       	ldd	r15, Y+5	; 0x05
    2c68:	0c 81       	ldd	r16, Y+4	; 0x04
    2c6a:	1b 81       	ldd	r17, Y+3	; 0x03
    2c6c:	aa 81       	ldd	r26, Y+2	; 0x02
    2c6e:	b9 81       	ldd	r27, Y+1	; 0x01
    2c70:	ce 0f       	add	r28, r30
    2c72:	d1 1d       	adc	r29, r1
    2c74:	0f b6       	in	r0, 0x3f	; 63
    2c76:	f8 94       	cli
    2c78:	de bf       	out	0x3e, r29	; 62
    2c7a:	0f be       	out	0x3f, r0	; 63
    2c7c:	cd bf       	out	0x3d, r28	; 61
    2c7e:	ed 01       	movw	r28, r26
    2c80:	08 95       	ret

00002c82 <__tablejump2__>:
    2c82:	ee 0f       	add	r30, r30
    2c84:	ff 1f       	adc	r31, r31

00002c86 <__tablejump__>:
    2c86:	05 90       	lpm	r0, Z+
    2c88:	f4 91       	lpm	r31, Z+
    2c8a:	e0 2d       	mov	r30, r0
    2c8c:	09 94       	ijmp

00002c8e <malloc>:
    2c8e:	cf 93       	push	r28
    2c90:	df 93       	push	r29
    2c92:	bc 01       	movw	r22, r24
    2c94:	82 30       	cpi	r24, 0x02	; 2
    2c96:	91 05       	cpc	r25, r1
    2c98:	10 f4       	brcc	.+4      	; 0x2c9e <malloc+0x10>
    2c9a:	62 e0       	ldi	r22, 0x02	; 2
    2c9c:	70 e0       	ldi	r23, 0x00	; 0
    2c9e:	a0 91 f8 02 	lds	r26, 0x02F8
    2ca2:	b0 91 f9 02 	lds	r27, 0x02F9
    2ca6:	ed 01       	movw	r28, r26
    2ca8:	e0 e0       	ldi	r30, 0x00	; 0
    2caa:	f0 e0       	ldi	r31, 0x00	; 0
    2cac:	40 e0       	ldi	r20, 0x00	; 0
    2cae:	50 e0       	ldi	r21, 0x00	; 0
    2cb0:	21 c0       	rjmp	.+66     	; 0x2cf4 <malloc+0x66>
    2cb2:	88 81       	ld	r24, Y
    2cb4:	99 81       	ldd	r25, Y+1	; 0x01
    2cb6:	86 17       	cp	r24, r22
    2cb8:	97 07       	cpc	r25, r23
    2cba:	69 f4       	brne	.+26     	; 0x2cd6 <malloc+0x48>
    2cbc:	8a 81       	ldd	r24, Y+2	; 0x02
    2cbe:	9b 81       	ldd	r25, Y+3	; 0x03
    2cc0:	30 97       	sbiw	r30, 0x00	; 0
    2cc2:	19 f0       	breq	.+6      	; 0x2cca <malloc+0x3c>
    2cc4:	93 83       	std	Z+3, r25	; 0x03
    2cc6:	82 83       	std	Z+2, r24	; 0x02
    2cc8:	04 c0       	rjmp	.+8      	; 0x2cd2 <malloc+0x44>
    2cca:	90 93 f9 02 	sts	0x02F9, r25
    2cce:	80 93 f8 02 	sts	0x02F8, r24
    2cd2:	fe 01       	movw	r30, r28
    2cd4:	34 c0       	rjmp	.+104    	; 0x2d3e <malloc+0xb0>
    2cd6:	68 17       	cp	r22, r24
    2cd8:	79 07       	cpc	r23, r25
    2cda:	38 f4       	brcc	.+14     	; 0x2cea <malloc+0x5c>
    2cdc:	41 15       	cp	r20, r1
    2cde:	51 05       	cpc	r21, r1
    2ce0:	19 f0       	breq	.+6      	; 0x2ce8 <malloc+0x5a>
    2ce2:	84 17       	cp	r24, r20
    2ce4:	95 07       	cpc	r25, r21
    2ce6:	08 f4       	brcc	.+2      	; 0x2cea <malloc+0x5c>
    2ce8:	ac 01       	movw	r20, r24
    2cea:	fe 01       	movw	r30, r28
    2cec:	8a 81       	ldd	r24, Y+2	; 0x02
    2cee:	9b 81       	ldd	r25, Y+3	; 0x03
    2cf0:	9c 01       	movw	r18, r24
    2cf2:	e9 01       	movw	r28, r18
    2cf4:	20 97       	sbiw	r28, 0x00	; 0
    2cf6:	e9 f6       	brne	.-70     	; 0x2cb2 <malloc+0x24>
    2cf8:	41 15       	cp	r20, r1
    2cfa:	51 05       	cpc	r21, r1
    2cfc:	a9 f1       	breq	.+106    	; 0x2d68 <malloc+0xda>
    2cfe:	ca 01       	movw	r24, r20
    2d00:	86 1b       	sub	r24, r22
    2d02:	97 0b       	sbc	r25, r23
    2d04:	04 97       	sbiw	r24, 0x04	; 4
    2d06:	08 f4       	brcc	.+2      	; 0x2d0a <malloc+0x7c>
    2d08:	ba 01       	movw	r22, r20
    2d0a:	e0 e0       	ldi	r30, 0x00	; 0
    2d0c:	f0 e0       	ldi	r31, 0x00	; 0
    2d0e:	2a c0       	rjmp	.+84     	; 0x2d64 <malloc+0xd6>
    2d10:	8d 91       	ld	r24, X+
    2d12:	9c 91       	ld	r25, X
    2d14:	11 97       	sbiw	r26, 0x01	; 1
    2d16:	84 17       	cp	r24, r20
    2d18:	95 07       	cpc	r25, r21
    2d1a:	f9 f4       	brne	.+62     	; 0x2d5a <malloc+0xcc>
    2d1c:	64 17       	cp	r22, r20
    2d1e:	75 07       	cpc	r23, r21
    2d20:	81 f4       	brne	.+32     	; 0x2d42 <malloc+0xb4>
    2d22:	12 96       	adiw	r26, 0x02	; 2
    2d24:	8d 91       	ld	r24, X+
    2d26:	9c 91       	ld	r25, X
    2d28:	13 97       	sbiw	r26, 0x03	; 3
    2d2a:	30 97       	sbiw	r30, 0x00	; 0
    2d2c:	19 f0       	breq	.+6      	; 0x2d34 <malloc+0xa6>
    2d2e:	93 83       	std	Z+3, r25	; 0x03
    2d30:	82 83       	std	Z+2, r24	; 0x02
    2d32:	04 c0       	rjmp	.+8      	; 0x2d3c <malloc+0xae>
    2d34:	90 93 f9 02 	sts	0x02F9, r25
    2d38:	80 93 f8 02 	sts	0x02F8, r24
    2d3c:	fd 01       	movw	r30, r26
    2d3e:	32 96       	adiw	r30, 0x02	; 2
    2d40:	4f c0       	rjmp	.+158    	; 0x2de0 <malloc+0x152>
    2d42:	ca 01       	movw	r24, r20
    2d44:	86 1b       	sub	r24, r22
    2d46:	97 0b       	sbc	r25, r23
    2d48:	fd 01       	movw	r30, r26
    2d4a:	e8 0f       	add	r30, r24
    2d4c:	f9 1f       	adc	r31, r25
    2d4e:	61 93       	st	Z+, r22
    2d50:	71 93       	st	Z+, r23
    2d52:	02 97       	sbiw	r24, 0x02	; 2
    2d54:	8d 93       	st	X+, r24
    2d56:	9c 93       	st	X, r25
    2d58:	43 c0       	rjmp	.+134    	; 0x2de0 <malloc+0x152>
    2d5a:	fd 01       	movw	r30, r26
    2d5c:	82 81       	ldd	r24, Z+2	; 0x02
    2d5e:	93 81       	ldd	r25, Z+3	; 0x03
    2d60:	9c 01       	movw	r18, r24
    2d62:	d9 01       	movw	r26, r18
    2d64:	10 97       	sbiw	r26, 0x00	; 0
    2d66:	a1 f6       	brne	.-88     	; 0x2d10 <malloc+0x82>
    2d68:	80 91 f6 02 	lds	r24, 0x02F6
    2d6c:	90 91 f7 02 	lds	r25, 0x02F7
    2d70:	89 2b       	or	r24, r25
    2d72:	41 f4       	brne	.+16     	; 0x2d84 <malloc+0xf6>
    2d74:	80 91 1a 01 	lds	r24, 0x011A
    2d78:	90 91 1b 01 	lds	r25, 0x011B
    2d7c:	90 93 f7 02 	sts	0x02F7, r25
    2d80:	80 93 f6 02 	sts	0x02F6, r24
    2d84:	40 91 1c 01 	lds	r20, 0x011C
    2d88:	50 91 1d 01 	lds	r21, 0x011D
    2d8c:	41 15       	cp	r20, r1
    2d8e:	51 05       	cpc	r21, r1
    2d90:	41 f4       	brne	.+16     	; 0x2da2 <malloc+0x114>
    2d92:	4d b7       	in	r20, 0x3d	; 61
    2d94:	5e b7       	in	r21, 0x3e	; 62
    2d96:	80 91 18 01 	lds	r24, 0x0118
    2d9a:	90 91 19 01 	lds	r25, 0x0119
    2d9e:	48 1b       	sub	r20, r24
    2da0:	59 0b       	sbc	r21, r25
    2da2:	20 91 f6 02 	lds	r18, 0x02F6
    2da6:	30 91 f7 02 	lds	r19, 0x02F7
    2daa:	24 17       	cp	r18, r20
    2dac:	35 07       	cpc	r19, r21
    2dae:	b0 f4       	brcc	.+44     	; 0x2ddc <malloc+0x14e>
    2db0:	ca 01       	movw	r24, r20
    2db2:	82 1b       	sub	r24, r18
    2db4:	93 0b       	sbc	r25, r19
    2db6:	86 17       	cp	r24, r22
    2db8:	97 07       	cpc	r25, r23
    2dba:	80 f0       	brcs	.+32     	; 0x2ddc <malloc+0x14e>
    2dbc:	ab 01       	movw	r20, r22
    2dbe:	4e 5f       	subi	r20, 0xFE	; 254
    2dc0:	5f 4f       	sbci	r21, 0xFF	; 255
    2dc2:	84 17       	cp	r24, r20
    2dc4:	95 07       	cpc	r25, r21
    2dc6:	50 f0       	brcs	.+20     	; 0x2ddc <malloc+0x14e>
    2dc8:	42 0f       	add	r20, r18
    2dca:	53 1f       	adc	r21, r19
    2dcc:	50 93 f7 02 	sts	0x02F7, r21
    2dd0:	40 93 f6 02 	sts	0x02F6, r20
    2dd4:	f9 01       	movw	r30, r18
    2dd6:	61 93       	st	Z+, r22
    2dd8:	71 93       	st	Z+, r23
    2dda:	02 c0       	rjmp	.+4      	; 0x2de0 <malloc+0x152>
    2ddc:	e0 e0       	ldi	r30, 0x00	; 0
    2dde:	f0 e0       	ldi	r31, 0x00	; 0
    2de0:	cf 01       	movw	r24, r30
    2de2:	df 91       	pop	r29
    2de4:	cf 91       	pop	r28
    2de6:	08 95       	ret

00002de8 <free>:
    2de8:	cf 93       	push	r28
    2dea:	df 93       	push	r29
    2dec:	00 97       	sbiw	r24, 0x00	; 0
    2dee:	09 f4       	brne	.+2      	; 0x2df2 <free+0xa>
    2df0:	50 c0       	rjmp	.+160    	; 0x2e92 <free+0xaa>
    2df2:	ec 01       	movw	r28, r24
    2df4:	22 97       	sbiw	r28, 0x02	; 2
    2df6:	1b 82       	std	Y+3, r1	; 0x03
    2df8:	1a 82       	std	Y+2, r1	; 0x02
    2dfa:	a0 91 f8 02 	lds	r26, 0x02F8
    2dfe:	b0 91 f9 02 	lds	r27, 0x02F9
    2e02:	10 97       	sbiw	r26, 0x00	; 0
    2e04:	09 f1       	breq	.+66     	; 0x2e48 <free+0x60>
    2e06:	40 e0       	ldi	r20, 0x00	; 0
    2e08:	50 e0       	ldi	r21, 0x00	; 0
    2e0a:	ac 17       	cp	r26, r28
    2e0c:	bd 07       	cpc	r27, r29
    2e0e:	08 f1       	brcs	.+66     	; 0x2e52 <free+0x6a>
    2e10:	bb 83       	std	Y+3, r27	; 0x03
    2e12:	aa 83       	std	Y+2, r26	; 0x02
    2e14:	fe 01       	movw	r30, r28
    2e16:	21 91       	ld	r18, Z+
    2e18:	31 91       	ld	r19, Z+
    2e1a:	e2 0f       	add	r30, r18
    2e1c:	f3 1f       	adc	r31, r19
    2e1e:	ae 17       	cp	r26, r30
    2e20:	bf 07       	cpc	r27, r31
    2e22:	79 f4       	brne	.+30     	; 0x2e42 <free+0x5a>
    2e24:	8d 91       	ld	r24, X+
    2e26:	9c 91       	ld	r25, X
    2e28:	11 97       	sbiw	r26, 0x01	; 1
    2e2a:	28 0f       	add	r18, r24
    2e2c:	39 1f       	adc	r19, r25
    2e2e:	2e 5f       	subi	r18, 0xFE	; 254
    2e30:	3f 4f       	sbci	r19, 0xFF	; 255
    2e32:	39 83       	std	Y+1, r19	; 0x01
    2e34:	28 83       	st	Y, r18
    2e36:	12 96       	adiw	r26, 0x02	; 2
    2e38:	8d 91       	ld	r24, X+
    2e3a:	9c 91       	ld	r25, X
    2e3c:	13 97       	sbiw	r26, 0x03	; 3
    2e3e:	9b 83       	std	Y+3, r25	; 0x03
    2e40:	8a 83       	std	Y+2, r24	; 0x02
    2e42:	41 15       	cp	r20, r1
    2e44:	51 05       	cpc	r21, r1
    2e46:	71 f4       	brne	.+28     	; 0x2e64 <free+0x7c>
    2e48:	d0 93 f9 02 	sts	0x02F9, r29
    2e4c:	c0 93 f8 02 	sts	0x02F8, r28
    2e50:	20 c0       	rjmp	.+64     	; 0x2e92 <free+0xaa>
    2e52:	12 96       	adiw	r26, 0x02	; 2
    2e54:	8d 91       	ld	r24, X+
    2e56:	9c 91       	ld	r25, X
    2e58:	13 97       	sbiw	r26, 0x03	; 3
    2e5a:	ad 01       	movw	r20, r26
    2e5c:	00 97       	sbiw	r24, 0x00	; 0
    2e5e:	11 f0       	breq	.+4      	; 0x2e64 <free+0x7c>
    2e60:	dc 01       	movw	r26, r24
    2e62:	d3 cf       	rjmp	.-90     	; 0x2e0a <free+0x22>
    2e64:	fa 01       	movw	r30, r20
    2e66:	d3 83       	std	Z+3, r29	; 0x03
    2e68:	c2 83       	std	Z+2, r28	; 0x02
    2e6a:	21 91       	ld	r18, Z+
    2e6c:	31 91       	ld	r19, Z+
    2e6e:	e2 0f       	add	r30, r18
    2e70:	f3 1f       	adc	r31, r19
    2e72:	ce 17       	cp	r28, r30
    2e74:	df 07       	cpc	r29, r31
    2e76:	69 f4       	brne	.+26     	; 0x2e92 <free+0xaa>
    2e78:	88 81       	ld	r24, Y
    2e7a:	99 81       	ldd	r25, Y+1	; 0x01
    2e7c:	28 0f       	add	r18, r24
    2e7e:	39 1f       	adc	r19, r25
    2e80:	2e 5f       	subi	r18, 0xFE	; 254
    2e82:	3f 4f       	sbci	r19, 0xFF	; 255
    2e84:	fa 01       	movw	r30, r20
    2e86:	31 83       	std	Z+1, r19	; 0x01
    2e88:	20 83       	st	Z, r18
    2e8a:	8a 81       	ldd	r24, Y+2	; 0x02
    2e8c:	9b 81       	ldd	r25, Y+3	; 0x03
    2e8e:	93 83       	std	Z+3, r25	; 0x03
    2e90:	82 83       	std	Z+2, r24	; 0x02
    2e92:	df 91       	pop	r29
    2e94:	cf 91       	pop	r28
    2e96:	08 95       	ret

00002e98 <fdevopen>:
    2e98:	0f 93       	push	r16
    2e9a:	1f 93       	push	r17
    2e9c:	cf 93       	push	r28
    2e9e:	df 93       	push	r29
    2ea0:	8c 01       	movw	r16, r24
    2ea2:	eb 01       	movw	r28, r22
    2ea4:	00 97       	sbiw	r24, 0x00	; 0
    2ea6:	31 f4       	brne	.+12     	; 0x2eb4 <fdevopen+0x1c>
    2ea8:	61 15       	cp	r22, r1
    2eaa:	71 05       	cpc	r23, r1
    2eac:	19 f4       	brne	.+6      	; 0x2eb4 <fdevopen+0x1c>
    2eae:	20 e0       	ldi	r18, 0x00	; 0
    2eb0:	30 e0       	ldi	r19, 0x00	; 0
    2eb2:	38 c0       	rjmp	.+112    	; 0x2f24 <fdevopen+0x8c>
    2eb4:	81 e0       	ldi	r24, 0x01	; 1
    2eb6:	90 e0       	ldi	r25, 0x00	; 0
    2eb8:	6e e0       	ldi	r22, 0x0E	; 14
    2eba:	70 e0       	ldi	r23, 0x00	; 0
    2ebc:	0e 94 98 17 	call	0x2f30	; 0x2f30 <calloc>
    2ec0:	fc 01       	movw	r30, r24
    2ec2:	9c 01       	movw	r18, r24
    2ec4:	00 97       	sbiw	r24, 0x00	; 0
    2ec6:	71 f1       	breq	.+92     	; 0x2f24 <fdevopen+0x8c>
    2ec8:	80 e8       	ldi	r24, 0x80	; 128
    2eca:	83 83       	std	Z+3, r24	; 0x03
    2ecc:	20 97       	sbiw	r28, 0x00	; 0
    2ece:	71 f0       	breq	.+28     	; 0x2eec <fdevopen+0x54>
    2ed0:	d3 87       	std	Z+11, r29	; 0x0b
    2ed2:	c2 87       	std	Z+10, r28	; 0x0a
    2ed4:	81 e8       	ldi	r24, 0x81	; 129
    2ed6:	83 83       	std	Z+3, r24	; 0x03
    2ed8:	80 91 fa 02 	lds	r24, 0x02FA
    2edc:	90 91 fb 02 	lds	r25, 0x02FB
    2ee0:	89 2b       	or	r24, r25
    2ee2:	21 f4       	brne	.+8      	; 0x2eec <fdevopen+0x54>
    2ee4:	f0 93 fb 02 	sts	0x02FB, r31
    2ee8:	e0 93 fa 02 	sts	0x02FA, r30
    2eec:	01 15       	cp	r16, r1
    2eee:	11 05       	cpc	r17, r1
    2ef0:	c9 f0       	breq	.+50     	; 0x2f24 <fdevopen+0x8c>
    2ef2:	11 87       	std	Z+9, r17	; 0x09
    2ef4:	00 87       	std	Z+8, r16	; 0x08
    2ef6:	83 81       	ldd	r24, Z+3	; 0x03
    2ef8:	82 60       	ori	r24, 0x02	; 2
    2efa:	83 83       	std	Z+3, r24	; 0x03
    2efc:	80 91 fc 02 	lds	r24, 0x02FC
    2f00:	90 91 fd 02 	lds	r25, 0x02FD
    2f04:	89 2b       	or	r24, r25
    2f06:	71 f4       	brne	.+28     	; 0x2f24 <fdevopen+0x8c>
    2f08:	f0 93 fd 02 	sts	0x02FD, r31
    2f0c:	e0 93 fc 02 	sts	0x02FC, r30
    2f10:	80 91 fe 02 	lds	r24, 0x02FE
    2f14:	90 91 ff 02 	lds	r25, 0x02FF
    2f18:	89 2b       	or	r24, r25
    2f1a:	21 f4       	brne	.+8      	; 0x2f24 <fdevopen+0x8c>
    2f1c:	f0 93 ff 02 	sts	0x02FF, r31
    2f20:	e0 93 fe 02 	sts	0x02FE, r30
    2f24:	c9 01       	movw	r24, r18
    2f26:	df 91       	pop	r29
    2f28:	cf 91       	pop	r28
    2f2a:	1f 91       	pop	r17
    2f2c:	0f 91       	pop	r16
    2f2e:	08 95       	ret

00002f30 <calloc>:
    2f30:	0f 93       	push	r16
    2f32:	1f 93       	push	r17
    2f34:	cf 93       	push	r28
    2f36:	df 93       	push	r29
    2f38:	68 9f       	mul	r22, r24
    2f3a:	80 01       	movw	r16, r0
    2f3c:	69 9f       	mul	r22, r25
    2f3e:	10 0d       	add	r17, r0
    2f40:	78 9f       	mul	r23, r24
    2f42:	10 0d       	add	r17, r0
    2f44:	11 24       	eor	r1, r1
    2f46:	c8 01       	movw	r24, r16
    2f48:	0e 94 47 16 	call	0x2c8e	; 0x2c8e <malloc>
    2f4c:	ec 01       	movw	r28, r24
    2f4e:	00 97       	sbiw	r24, 0x00	; 0
    2f50:	29 f0       	breq	.+10     	; 0x2f5c <calloc+0x2c>
    2f52:	60 e0       	ldi	r22, 0x00	; 0
    2f54:	70 e0       	ldi	r23, 0x00	; 0
    2f56:	a8 01       	movw	r20, r16
    2f58:	0e 94 b4 17 	call	0x2f68	; 0x2f68 <memset>
    2f5c:	ce 01       	movw	r24, r28
    2f5e:	df 91       	pop	r29
    2f60:	cf 91       	pop	r28
    2f62:	1f 91       	pop	r17
    2f64:	0f 91       	pop	r16
    2f66:	08 95       	ret

00002f68 <memset>:
    2f68:	dc 01       	movw	r26, r24
    2f6a:	01 c0       	rjmp	.+2      	; 0x2f6e <memset+0x6>
    2f6c:	6d 93       	st	X+, r22
    2f6e:	41 50       	subi	r20, 0x01	; 1
    2f70:	50 40       	sbci	r21, 0x00	; 0
    2f72:	e0 f7       	brcc	.-8      	; 0x2f6c <memset+0x4>
    2f74:	08 95       	ret

00002f76 <__do_global_dtors>:
    2f76:	10 e0       	ldi	r17, 0x00	; 0
    2f78:	ca e6       	ldi	r28, 0x6A	; 106
    2f7a:	d0 e0       	ldi	r29, 0x00	; 0
    2f7c:	04 c0       	rjmp	.+8      	; 0x2f86 <.do_global_dtors_start>

00002f7e <.do_global_dtors_loop>:
    2f7e:	fe 01       	movw	r30, r28
    2f80:	0e 94 43 16 	call	0x2c86	; 0x2c86 <__tablejump__>
    2f84:	22 96       	adiw	r28, 0x02	; 2

00002f86 <.do_global_dtors_start>:
    2f86:	cc 36       	cpi	r28, 0x6C	; 108
    2f88:	d1 07       	cpc	r29, r17
    2f8a:	c9 f7       	brne	.-14     	; 0x2f7e <.do_global_dtors_loop>
    2f8c:	f8 94       	cli

00002f8e <__stop_program>:
    2f8e:	ff cf       	rjmp	.-2      	; 0x2f8e <__stop_program>
